(lp0
(dp1
S'RightDorsalOrgan'
p2
(dp3
I25
ccopy_reg
_reconstructor
p4
(cpandas.core.frame
DataFrame
p5
c__builtin__
object
p6
Ntp7
Rp8
(dp9
S'_metadata'
p10
(lp11
sS'_typ'
p12
S'dataframe'
p13
sS'_data'
p14
g4
(cpandas.core.internals
BlockManager
p15
g6
Ntp16
Rp17
((lp18
cpandas.core.indexes.base
_new_Index
p19
(cpandas.core.indexes.base
Index
p20
(dp21
S'data'
p22
cnumpy.core.multiarray
_reconstruct
p23
(cnumpy
ndarray
p24
(I0
tp25
S'b'
p26
tp27
Rp28
(I1
(I15
tp29
cnumpy
dtype
p30
(S'O8'
p31
I0
I1
tp32
Rp33
(I3
S'|'
p34
NNNI-1
I-1
I63
tp35
bI00
(lp36
S'true_positive'
p37
aS'false_positive'
p38
aS'true_negative'
p39
aS'false_negative'
p40
aS'positive'
p41
aS'negative'
p42
aS'true_positive_rate'
p43
aS'false_positive_rate'
p44
aS'total_negative'
p45
aS'total_positive'
p46
aS'true_negative_rate'
p47
aS'false_negative_rate'
p48
aS'precision'
p49
aS'recall'
p50
aS'vote_threshold'
p51
atp52
bsS'name'
p53
Nstp54
Rp55
ag19
(cpandas.core.indexes.numeric
Int64Index
p56
(dp57
g22
g23
(g24
(I0
tp58
g26
tp59
Rp60
(I1
(I21
tp61
g30
(S'i8'
p62
I0
I1
tp63
Rp64
(I3
S'<'
p65
NNNI-1
I-1
I0
tp66
bI00
S'\x00\x00\x00\x00\x00\x00\x00\x00\x01\x00\x00\x00\x00\x00\x00\x00\x02\x00\x00\x00\x00\x00\x00\x00\x03\x00\x00\x00\x00\x00\x00\x00\x04\x00\x00\x00\x00\x00\x00\x00\x05\x00\x00\x00\x00\x00\x00\x00\x06\x00\x00\x00\x00\x00\x00\x00\x07\x00\x00\x00\x00\x00\x00\x00\x08\x00\x00\x00\x00\x00\x00\x00\t\x00\x00\x00\x00\x00\x00\x00\n\x00\x00\x00\x00\x00\x00\x00\x0b\x00\x00\x00\x00\x00\x00\x00\x0c\x00\x00\x00\x00\x00\x00\x00\r\x00\x00\x00\x00\x00\x00\x00\x0e\x00\x00\x00\x00\x00\x00\x00\x0f\x00\x00\x00\x00\x00\x00\x00\x10\x00\x00\x00\x00\x00\x00\x00\x11\x00\x00\x00\x00\x00\x00\x00\x12\x00\x00\x00\x00\x00\x00\x00\x13\x00\x00\x00\x00\x00\x00\x00\x14\x00\x00\x00\x00\x00\x00\x00'
p67
tp68
bsg53
Nstp69
Rp70
a(lp71
g23
(g24
(I0
tp72
g26
tp73
Rp74
(I1
(I15
I21
tp75
g33
I01
(lp76
I752
aI675
aI345
aI136
aI36
aI6
aI1
aI0
aI0
aI0
aI0
aI0
aI0
aI0
aI0
aI0
aI0
aI0
aI0
aI0
aI0
aI542
aI284
aI36
aI3
aI0
aI0
aI0
aI0
aI0
aI0
aI0
aI0
aI0
aI0
aI0
aI0
aI0
aI0
aI0
aI0
aI0
aI4
aI262
aI510
aI543
aI546
aI546
aI546
aI546
aI546
aI546
aI546
aI546
aI546
aI546
aI546
aI546
aI546
aI546
aI546
aI546
aI546
aI882
aI959
aI1289
aI1498
aI1598
aI1628
aI1633
aI1634
aI1634
aI1634
aI1634
aI1634
aI1634
aI1634
aI1634
aI1634
aI1634
aI1634
aI1634
aI1634
aI1634
aI1634
aI1634
aI1634
aI1634
aI1634
aI1634
aI1634
aI1634
aI1634
aI1634
aI1634
aI1634
aI1634
aI1634
aI1634
aI1634
aI1634
aI1634
aI1634
aI1634
aI1634
aI546
aI546
aI546
aI546
aI546
aI546
aI546
aI546
aI546
aI546
aI546
aI546
aI546
aI546
aI546
aI546
aI546
aI546
aI546
aI546
aI546
aF0.4602203182374541
aF0.4130966952264382
aF0.21113831089351284
aF0.0832313341493268
aF0.022031823745410038
aF0.0036719706242350062
aF0.0006119951040391676
aF0.0
aF0.0
aF0.0
aF0.0
aF0.0
aF0.0
aF0.0
aF0.0
aF0.0
aF0.0
aF0.0
aF0.0
aF0.0
aF0.0
aF0.9926739926739927
aF0.5201465201465202
aF0.06593406593406594
aF0.005494505494505495
aF0.0
aF0.0
aF0.0
aF0.0
aF0.0
aF0.0
aF0.0
aF0.0
aF0.0
aF0.0
aF0.0
aF0.0
aF0.0
aF0.0
aF0.0
aF0.0
aF0.0
aI546
aI546
aI546
aI546
aI546
aI546
aI546
aI546
aI546
aI546
aI546
aI546
aI546
aI546
aI546
aI546
aI546
aI546
aI546
aI546
aI546
aI1634
aI1634
aI1634
aI1634
aI1634
aI1634
aI1634
aI1634
aI1634
aI1634
aI1634
aI1634
aI1634
aI1634
aI1634
aI1634
aI1634
aI1634
aI1634
aI1634
aI1634
aF0.007326007326007326
aF0.47985347985347987
aF0.9340659340659341
aF0.9945054945054945
aF1.0
aF1.0
aF1.0
aF1.0
aF1.0
aF1.0
aF1.0
aF1.0
aF1.0
aF1.0
aF1.0
aF1.0
aF1.0
aF1.0
aF1.0
aF1.0
aF1.0
aF0.5397796817625459
aF0.5869033047735618
aF0.7888616891064871
aF0.9167686658506732
aF0.97796817625459
aF0.996328029375765
aF0.9993880048959608
aF1.0
aF1.0
aF1.0
aF1.0
aF1.0
aF1.0
aF1.0
aF1.0
aF1.0
aF1.0
aF1.0
aF1.0
aF1.0
aF1.0
aF0.5811437403400309
aF0.7038581856100105
aF0.905511811023622
aF0.9784172661870504
aF1.0
aF1.0
aF1.0
aI1
aI1
aI1
aI1
aI1
aI1
aI1
aI1
aI1
aI1
aI1
aI1
aI1
aI1
aF0.4602203182374541
aF0.4130966952264382
aF0.21113831089351284
aF0.0832313341493268
aF0.022031823745410038
aF0.0036719706242350062
aF0.0006119951040391676
aF0.0
aF0.0
aF0.0
aF0.0
aF0.0
aF0.0
aF0.0
aF0.0
aF0.0
aF0.0
aF0.0
aF0.0
aF0.0
aF0.0
acnumpy.core.multiarray
scalar
p77
(g30
(S'f8'
p78
I0
I1
tp79
Rp80
(I3
S'<'
p81
NNNI-1
I-1
I0
tp82
bS'\x00\x00\x00\x00\x00\x00\x00\x00'
p83
tp84
Rp85
ag77
(g80
S'\x9a\x99\x99\x99\x99\x99\xa9?'
p86
tp87
Rp88
ag77
(g80
S'\x9a\x99\x99\x99\x99\x99\xb9?'
p89
tp90
Rp91
ag77
(g80
S'433333\xc3?'
p92
tp93
Rp94
ag77
(g80
S'\x9a\x99\x99\x99\x99\x99\xc9?'
p95
tp96
Rp97
ag77
(g80
S'\x00\x00\x00\x00\x00\x00\xd0?'
p98
tp99
Rp100
ag77
(g80
S'433333\xd3?'
p101
tp102
Rp103
ag77
(g80
S'gfffff\xd6?'
p104
tp105
Rp106
ag77
(g80
S'\x9a\x99\x99\x99\x99\x99\xd9?'
p107
tp108
Rp109
ag77
(g80
S'\xcd\xcc\xcc\xcc\xcc\xcc\xdc?'
p110
tp111
Rp112
ag77
(g80
S'\x00\x00\x00\x00\x00\x00\xe0?'
p113
tp114
Rp115
ag77
(g80
S'\x9a\x99\x99\x99\x99\x99\xe1?'
p116
tp117
Rp118
ag77
(g80
S'433333\xe3?'
p119
tp120
Rp121
ag77
(g80
S'\xcd\xcc\xcc\xcc\xcc\xcc\xe4?'
p122
tp123
Rp124
ag77
(g80
S'gfffff\xe6?'
p125
tp126
Rp127
ag77
(g80
S'\x00\x00\x00\x00\x00\x00\xe8?'
p128
tp129
Rp130
ag77
(g80
S'\x9a\x99\x99\x99\x99\x99\xe9?'
p131
tp132
Rp133
ag77
(g80
S'433333\xeb?'
p134
tp135
Rp136
ag77
(g80
S'\xcd\xcc\xcc\xcc\xcc\xcc\xec?'
p137
tp138
Rp139
ag77
(g80
S'gfffff\xee?'
p140
tp141
Rp142
ag77
(g80
S'\x00\x00\x00\x00\x00\x00\xf0?'
p143
tp144
Rp145
atp146
ba(lp147
g19
(g20
(dp148
g22
g23
(g24
(I0
tp149
g26
tp150
Rp151
(I1
(I15
tp152
g33
I00
(lp153
g37
ag38
ag39
ag40
ag41
ag42
ag43
ag44
ag45
ag46
ag47
ag48
ag49
ag50
ag51
atp154
bsg53
Nstp155
Rp156
a(dp157
S'0.14.1'
p158
(dp159
S'axes'
p160
g18
sS'blocks'
p161
(lp162
(dp163
S'mgr_locs'
p164
c__builtin__
slice
p165
(I0
I15
I1
tp166
Rp167
sS'values'
p168
g74
sasstp169
bsbsI50
g4
(g5
g6
Ntp170
Rp171
(dp172
g10
g11
sg12
g13
sg14
g4
(g15
g6
Ntp173
Rp174
((lp175
g19
(g20
(dp176
g22
g23
(g24
(I0
tp177
g26
tp178
Rp179
(I1
(I15
tp180
g33
I00
(lp181
g37
ag38
ag39
ag40
ag41
ag42
ag43
ag44
ag45
ag46
ag47
ag48
ag49
ag50
ag51
atp182
bsg53
Nstp183
Rp184
ag19
(g56
(dp185
g22
g23
(g24
(I0
tp186
g26
tp187
Rp188
(I1
(I21
tp189
g64
I00
S'\x00\x00\x00\x00\x00\x00\x00\x00\x01\x00\x00\x00\x00\x00\x00\x00\x02\x00\x00\x00\x00\x00\x00\x00\x03\x00\x00\x00\x00\x00\x00\x00\x04\x00\x00\x00\x00\x00\x00\x00\x05\x00\x00\x00\x00\x00\x00\x00\x06\x00\x00\x00\x00\x00\x00\x00\x07\x00\x00\x00\x00\x00\x00\x00\x08\x00\x00\x00\x00\x00\x00\x00\t\x00\x00\x00\x00\x00\x00\x00\n\x00\x00\x00\x00\x00\x00\x00\x0b\x00\x00\x00\x00\x00\x00\x00\x0c\x00\x00\x00\x00\x00\x00\x00\r\x00\x00\x00\x00\x00\x00\x00\x0e\x00\x00\x00\x00\x00\x00\x00\x0f\x00\x00\x00\x00\x00\x00\x00\x10\x00\x00\x00\x00\x00\x00\x00\x11\x00\x00\x00\x00\x00\x00\x00\x12\x00\x00\x00\x00\x00\x00\x00\x13\x00\x00\x00\x00\x00\x00\x00\x14\x00\x00\x00\x00\x00\x00\x00'
p190
tp191
bsg53
Nstp192
Rp193
a(lp194
g23
(g24
(I0
tp195
g26
tp196
Rp197
(I1
(I15
I21
tp198
g33
I01
(lp199
I1156
aI1009
aI466
aI165
aI41
aI7
aI1
aI0
aI0
aI0
aI0
aI0
aI0
aI0
aI0
aI0
aI0
aI0
aI0
aI0
aI0
aI542
aI284
aI36
aI3
aI0
aI0
aI0
aI0
aI0
aI0
aI0
aI0
aI0
aI0
aI0
aI0
aI0
aI0
aI0
aI0
aI0
aI4
aI262
aI510
aI543
aI546
aI546
aI546
aI546
aI546
aI546
aI546
aI546
aI546
aI546
aI546
aI546
aI546
aI546
aI546
aI546
aI546
aI478
aI625
aI1168
aI1469
aI1593
aI1627
aI1633
aI1634
aI1634
aI1634
aI1634
aI1634
aI1634
aI1634
aI1634
aI1634
aI1634
aI1634
aI1634
aI1634
aI1634
aI1634
aI1634
aI1634
aI1634
aI1634
aI1634
aI1634
aI1634
aI1634
aI1634
aI1634
aI1634
aI1634
aI1634
aI1634
aI1634
aI1634
aI1634
aI1634
aI1634
aI1634
aI546
aI546
aI546
aI546
aI546
aI546
aI546
aI546
aI546
aI546
aI546
aI546
aI546
aI546
aI546
aI546
aI546
aI546
aI546
aI546
aI546
aF0.7074663402692778
aF0.6175030599755202
aF0.28518971848225216
aF0.10097919216646267
aF0.025091799265605876
aF0.004283965728274173
aF0.0006119951040391676
aF0.0
aF0.0
aF0.0
aF0.0
aF0.0
aF0.0
aF0.0
aF0.0
aF0.0
aF0.0
aF0.0
aF0.0
aF0.0
aF0.0
aF0.9926739926739927
aF0.5201465201465202
aF0.06593406593406594
aF0.005494505494505495
aF0.0
aF0.0
aF0.0
aF0.0
aF0.0
aF0.0
aF0.0
aF0.0
aF0.0
aF0.0
aF0.0
aF0.0
aF0.0
aF0.0
aF0.0
aF0.0
aF0.0
aI546
aI546
aI546
aI546
aI546
aI546
aI546
aI546
aI546
aI546
aI546
aI546
aI546
aI546
aI546
aI546
aI546
aI546
aI546
aI546
aI546
aI1634
aI1634
aI1634
aI1634
aI1634
aI1634
aI1634
aI1634
aI1634
aI1634
aI1634
aI1634
aI1634
aI1634
aI1634
aI1634
aI1634
aI1634
aI1634
aI1634
aI1634
aF0.007326007326007326
aF0.47985347985347987
aF0.9340659340659341
aF0.9945054945054945
aF1.0
aF1.0
aF1.0
aF1.0
aF1.0
aF1.0
aF1.0
aF1.0
aF1.0
aF1.0
aF1.0
aF1.0
aF1.0
aF1.0
aF1.0
aF1.0
aF1.0
aF0.29253365973072215
aF0.3824969400244798
aF0.7148102815177478
aF0.8990208078335373
aF0.9749082007343941
aF0.9957160342717258
aF0.9993880048959608
aF1.0
aF1.0
aF1.0
aF1.0
aF1.0
aF1.0
aF1.0
aF1.0
aF1.0
aF1.0
aF1.0
aF1.0
aF1.0
aF1.0
aF0.6808009422850412
aF0.7803557617942769
aF0.9282868525896414
aF0.9821428571428571
aF1.0
aF1.0
aF1.0
aI1
aI1
aI1
aI1
aI1
aI1
aI1
aI1
aI1
aI1
aI1
aI1
aI1
aI1
aF0.7074663402692778
aF0.6175030599755202
aF0.28518971848225216
aF0.10097919216646267
aF0.025091799265605876
aF0.004283965728274173
aF0.0006119951040391676
aF0.0
aF0.0
aF0.0
aF0.0
aF0.0
aF0.0
aF0.0
aF0.0
aF0.0
aF0.0
aF0.0
aF0.0
aF0.0
aF0.0
ag77
(g80
S'\x00\x00\x00\x00\x00\x00\x00\x00'
p200
tp201
Rp202
ag77
(g80
S'\x9a\x99\x99\x99\x99\x99\xa9?'
p203
tp204
Rp205
ag77
(g80
S'\x9a\x99\x99\x99\x99\x99\xb9?'
p206
tp207
Rp208
ag77
(g80
S'433333\xc3?'
p209
tp210
Rp211
ag77
(g80
S'\x9a\x99\x99\x99\x99\x99\xc9?'
p212
tp213
Rp214
ag77
(g80
S'\x00\x00\x00\x00\x00\x00\xd0?'
p215
tp216
Rp217
ag77
(g80
S'433333\xd3?'
p218
tp219
Rp220
ag77
(g80
S'gfffff\xd6?'
p221
tp222
Rp223
ag77
(g80
S'\x9a\x99\x99\x99\x99\x99\xd9?'
p224
tp225
Rp226
ag77
(g80
S'\xcd\xcc\xcc\xcc\xcc\xcc\xdc?'
p227
tp228
Rp229
ag77
(g80
S'\x00\x00\x00\x00\x00\x00\xe0?'
p230
tp231
Rp232
ag77
(g80
S'\x9a\x99\x99\x99\x99\x99\xe1?'
p233
tp234
Rp235
ag77
(g80
S'433333\xe3?'
p236
tp237
Rp238
ag77
(g80
S'\xcd\xcc\xcc\xcc\xcc\xcc\xe4?'
p239
tp240
Rp241
ag77
(g80
S'gfffff\xe6?'
p242
tp243
Rp244
ag77
(g80
S'\x00\x00\x00\x00\x00\x00\xe8?'
p245
tp246
Rp247
ag77
(g80
S'\x9a\x99\x99\x99\x99\x99\xe9?'
p248
tp249
Rp250
ag77
(g80
S'433333\xeb?'
p251
tp252
Rp253
ag77
(g80
S'\xcd\xcc\xcc\xcc\xcc\xcc\xec?'
p254
tp255
Rp256
ag77
(g80
S'gfffff\xee?'
p257
tp258
Rp259
ag77
(g80
S'\x00\x00\x00\x00\x00\x00\xf0?'
p260
tp261
Rp262
atp263
ba(lp264
g19
(g20
(dp265
g22
g23
(g24
(I0
tp266
g26
tp267
Rp268
(I1
(I15
tp269
g33
I00
(lp270
g37
ag38
ag39
ag40
ag41
ag42
ag43
ag44
ag45
ag46
ag47
ag48
ag49
ag50
ag51
atp271
bsg53
Nstp272
Rp273
a(dp274
g158
(dp275
g160
g175
sg161
(lp276
(dp277
g164
g165
(I0
I15
I1
tp278
Rp279
sg168
g197
sasstp280
bsbsI75
g4
(g5
g6
Ntp281
Rp282
(dp283
g10
g11
sg12
g13
sg14
g4
(g15
g6
Ntp284
Rp285
((lp286
g19
(g20
(dp287
g22
g23
(g24
(I0
tp288
g26
tp289
Rp290
(I1
(I15
tp291
g33
I00
(lp292
g37
ag38
ag39
ag40
ag41
ag42
ag43
ag44
ag45
ag46
ag47
ag48
ag49
ag50
ag51
atp293
bsg53
Nstp294
Rp295
ag19
(g56
(dp296
g22
g23
(g24
(I0
tp297
g26
tp298
Rp299
(I1
(I21
tp300
g64
I00
S'\x00\x00\x00\x00\x00\x00\x00\x00\x01\x00\x00\x00\x00\x00\x00\x00\x02\x00\x00\x00\x00\x00\x00\x00\x03\x00\x00\x00\x00\x00\x00\x00\x04\x00\x00\x00\x00\x00\x00\x00\x05\x00\x00\x00\x00\x00\x00\x00\x06\x00\x00\x00\x00\x00\x00\x00\x07\x00\x00\x00\x00\x00\x00\x00\x08\x00\x00\x00\x00\x00\x00\x00\t\x00\x00\x00\x00\x00\x00\x00\n\x00\x00\x00\x00\x00\x00\x00\x0b\x00\x00\x00\x00\x00\x00\x00\x0c\x00\x00\x00\x00\x00\x00\x00\r\x00\x00\x00\x00\x00\x00\x00\x0e\x00\x00\x00\x00\x00\x00\x00\x0f\x00\x00\x00\x00\x00\x00\x00\x10\x00\x00\x00\x00\x00\x00\x00\x11\x00\x00\x00\x00\x00\x00\x00\x12\x00\x00\x00\x00\x00\x00\x00\x13\x00\x00\x00\x00\x00\x00\x00\x14\x00\x00\x00\x00\x00\x00\x00'
p301
tp302
bsg53
Nstp303
Rp304
a(lp305
g23
(g24
(I0
tp306
g26
tp307
Rp308
(I1
(I15
I21
tp309
g33
I01
(lp310
I1287
aI1090
aI477
aI166
aI41
aI7
aI1
aI0
aI0
aI0
aI0
aI0
aI0
aI0
aI0
aI0
aI0
aI0
aI0
aI0
aI0
aI542
aI284
aI36
aI3
aI0
aI0
aI0
aI0
aI0
aI0
aI0
aI0
aI0
aI0
aI0
aI0
aI0
aI0
aI0
aI0
aI0
aI4
aI262
aI510
aI543
aI546
aI546
aI546
aI546
aI546
aI546
aI546
aI546
aI546
aI546
aI546
aI546
aI546
aI546
aI546
aI546
aI546
aI347
aI544
aI1157
aI1468
aI1593
aI1627
aI1633
aI1634
aI1634
aI1634
aI1634
aI1634
aI1634
aI1634
aI1634
aI1634
aI1634
aI1634
aI1634
aI1634
aI1634
aI1634
aI1634
aI1634
aI1634
aI1634
aI1634
aI1634
aI1634
aI1634
aI1634
aI1634
aI1634
aI1634
aI1634
aI1634
aI1634
aI1634
aI1634
aI1634
aI1634
aI1634
aI546
aI546
aI546
aI546
aI546
aI546
aI546
aI546
aI546
aI546
aI546
aI546
aI546
aI546
aI546
aI546
aI546
aI546
aI546
aI546
aI546
aF0.7876376988984088
aF0.6670746634026927
aF0.291921664626683
aF0.10159118727050184
aF0.025091799265605876
aF0.004283965728274173
aF0.0006119951040391676
aF0.0
aF0.0
aF0.0
aF0.0
aF0.0
aF0.0
aF0.0
aF0.0
aF0.0
aF0.0
aF0.0
aF0.0
aF0.0
aF0.0
aF0.9926739926739927
aF0.5201465201465202
aF0.06593406593406594
aF0.005494505494505495
aF0.0
aF0.0
aF0.0
aF0.0
aF0.0
aF0.0
aF0.0
aF0.0
aF0.0
aF0.0
aF0.0
aF0.0
aF0.0
aF0.0
aF0.0
aF0.0
aF0.0
aI546
aI546
aI546
aI546
aI546
aI546
aI546
aI546
aI546
aI546
aI546
aI546
aI546
aI546
aI546
aI546
aI546
aI546
aI546
aI546
aI546
aI1634
aI1634
aI1634
aI1634
aI1634
aI1634
aI1634
aI1634
aI1634
aI1634
aI1634
aI1634
aI1634
aI1634
aI1634
aI1634
aI1634
aI1634
aI1634
aI1634
aI1634
aF0.007326007326007326
aF0.47985347985347987
aF0.9340659340659341
aF0.9945054945054945
aF1.0
aF1.0
aF1.0
aF1.0
aF1.0
aF1.0
aF1.0
aF1.0
aF1.0
aF1.0
aF1.0
aF1.0
aF1.0
aF1.0
aF1.0
aF1.0
aF1.0
aF0.21236230110159118
aF0.3329253365973072
aF0.708078335373317
aF0.8984088127294981
aF0.9749082007343941
aF0.9957160342717258
aF0.9993880048959608
aF1.0
aF1.0
aF1.0
aF1.0
aF1.0
aF1.0
aF1.0
aF1.0
aF1.0
aF1.0
aF1.0
aF1.0
aF1.0
aF1.0
aF0.7036632039365773
aF0.7933042212518195
aF0.9298245614035088
aF0.9822485207100592
aF1.0
aF1.0
aF1.0
aI1
aI1
aI1
aI1
aI1
aI1
aI1
aI1
aI1
aI1
aI1
aI1
aI1
aI1
aF0.7876376988984088
aF0.6670746634026927
aF0.291921664626683
aF0.10159118727050184
aF0.025091799265605876
aF0.004283965728274173
aF0.0006119951040391676
aF0.0
aF0.0
aF0.0
aF0.0
aF0.0
aF0.0
aF0.0
aF0.0
aF0.0
aF0.0
aF0.0
aF0.0
aF0.0
aF0.0
ag77
(g80
S'\x00\x00\x00\x00\x00\x00\x00\x00'
p311
tp312
Rp313
ag77
(g80
S'\x9a\x99\x99\x99\x99\x99\xa9?'
p314
tp315
Rp316
ag77
(g80
S'\x9a\x99\x99\x99\x99\x99\xb9?'
p317
tp318
Rp319
ag77
(g80
S'433333\xc3?'
p320
tp321
Rp322
ag77
(g80
S'\x9a\x99\x99\x99\x99\x99\xc9?'
p323
tp324
Rp325
ag77
(g80
S'\x00\x00\x00\x00\x00\x00\xd0?'
p326
tp327
Rp328
ag77
(g80
S'433333\xd3?'
p329
tp330
Rp331
ag77
(g80
S'gfffff\xd6?'
p332
tp333
Rp334
ag77
(g80
S'\x9a\x99\x99\x99\x99\x99\xd9?'
p335
tp336
Rp337
ag77
(g80
S'\xcd\xcc\xcc\xcc\xcc\xcc\xdc?'
p338
tp339
Rp340
ag77
(g80
S'\x00\x00\x00\x00\x00\x00\xe0?'
p341
tp342
Rp343
ag77
(g80
S'\x9a\x99\x99\x99\x99\x99\xe1?'
p344
tp345
Rp346
ag77
(g80
S'433333\xe3?'
p347
tp348
Rp349
ag77
(g80
S'\xcd\xcc\xcc\xcc\xcc\xcc\xe4?'
p350
tp351
Rp352
ag77
(g80
S'gfffff\xe6?'
p353
tp354
Rp355
ag77
(g80
S'\x00\x00\x00\x00\x00\x00\xe8?'
p356
tp357
Rp358
ag77
(g80
S'\x9a\x99\x99\x99\x99\x99\xe9?'
p359
tp360
Rp361
ag77
(g80
S'433333\xeb?'
p362
tp363
Rp364
ag77
(g80
S'\xcd\xcc\xcc\xcc\xcc\xcc\xec?'
p365
tp366
Rp367
ag77
(g80
S'gfffff\xee?'
p368
tp369
Rp370
ag77
(g80
S'\x00\x00\x00\x00\x00\x00\xf0?'
p371
tp372
Rp373
atp374
ba(lp375
g19
(g20
(dp376
g22
g23
(g24
(I0
tp377
g26
tp378
Rp379
(I1
(I15
tp380
g33
I00
(lp381
g37
ag38
ag39
ag40
ag41
ag42
ag43
ag44
ag45
ag46
ag47
ag48
ag49
ag50
ag51
atp382
bsg53
Nstp383
Rp384
a(dp385
g158
(dp386
g160
g286
sg161
(lp387
(dp388
g164
g165
(I0
I15
I1
tp389
Rp390
sg168
g308
sasstp391
bsbsI100
g4
(g5
g6
Ntp392
Rp393
(dp394
g10
g11
sg12
g13
sg14
g4
(g15
g6
Ntp395
Rp396
((lp397
g19
(g20
(dp398
g22
g23
(g24
(I0
tp399
g26
tp400
Rp401
(I1
(I15
tp402
g33
I00
(lp403
g37
ag38
ag39
ag40
ag41
ag42
ag43
ag44
ag45
ag46
ag47
ag48
ag49
ag50
ag51
atp404
bsg53
Nstp405
Rp406
ag19
(g56
(dp407
g22
g23
(g24
(I0
tp408
g26
tp409
Rp410
(I1
(I21
tp411
g64
I00
S'\x00\x00\x00\x00\x00\x00\x00\x00\x01\x00\x00\x00\x00\x00\x00\x00\x02\x00\x00\x00\x00\x00\x00\x00\x03\x00\x00\x00\x00\x00\x00\x00\x04\x00\x00\x00\x00\x00\x00\x00\x05\x00\x00\x00\x00\x00\x00\x00\x06\x00\x00\x00\x00\x00\x00\x00\x07\x00\x00\x00\x00\x00\x00\x00\x08\x00\x00\x00\x00\x00\x00\x00\t\x00\x00\x00\x00\x00\x00\x00\n\x00\x00\x00\x00\x00\x00\x00\x0b\x00\x00\x00\x00\x00\x00\x00\x0c\x00\x00\x00\x00\x00\x00\x00\r\x00\x00\x00\x00\x00\x00\x00\x0e\x00\x00\x00\x00\x00\x00\x00\x0f\x00\x00\x00\x00\x00\x00\x00\x10\x00\x00\x00\x00\x00\x00\x00\x11\x00\x00\x00\x00\x00\x00\x00\x12\x00\x00\x00\x00\x00\x00\x00\x13\x00\x00\x00\x00\x00\x00\x00\x14\x00\x00\x00\x00\x00\x00\x00'
p412
tp413
bsg53
Nstp414
Rp415
a(lp416
g23
(g24
(I0
tp417
g26
tp418
Rp419
(I1
(I15
I21
tp420
g33
I01
(lp421
I1352
aI1128
aI482
aI166
aI41
aI7
aI1
aI0
aI0
aI0
aI0
aI0
aI0
aI0
aI0
aI0
aI0
aI0
aI0
aI0
aI0
aI542
aI284
aI36
aI3
aI0
aI0
aI0
aI0
aI0
aI0
aI0
aI0
aI0
aI0
aI0
aI0
aI0
aI0
aI0
aI0
aI0
aI4
aI262
aI510
aI543
aI546
aI546
aI546
aI546
aI546
aI546
aI546
aI546
aI546
aI546
aI546
aI546
aI546
aI546
aI546
aI546
aI546
aI282
aI506
aI1152
aI1468
aI1593
aI1627
aI1633
aI1634
aI1634
aI1634
aI1634
aI1634
aI1634
aI1634
aI1634
aI1634
aI1634
aI1634
aI1634
aI1634
aI1634
aI1634
aI1634
aI1634
aI1634
aI1634
aI1634
aI1634
aI1634
aI1634
aI1634
aI1634
aI1634
aI1634
aI1634
aI1634
aI1634
aI1634
aI1634
aI1634
aI1634
aI1634
aI546
aI546
aI546
aI546
aI546
aI546
aI546
aI546
aI546
aI546
aI546
aI546
aI546
aI546
aI546
aI546
aI546
aI546
aI546
aI546
aI546
aF0.8274173806609547
aF0.6903304773561811
aF0.29498164014687883
aF0.10159118727050184
aF0.025091799265605876
aF0.004283965728274173
aF0.0006119951040391676
aF0.0
aF0.0
aF0.0
aF0.0
aF0.0
aF0.0
aF0.0
aF0.0
aF0.0
aF0.0
aF0.0
aF0.0
aF0.0
aF0.0
aF0.9926739926739927
aF0.5201465201465202
aF0.06593406593406594
aF0.005494505494505495
aF0.0
aF0.0
aF0.0
aF0.0
aF0.0
aF0.0
aF0.0
aF0.0
aF0.0
aF0.0
aF0.0
aF0.0
aF0.0
aF0.0
aF0.0
aF0.0
aF0.0
aI546
aI546
aI546
aI546
aI546
aI546
aI546
aI546
aI546
aI546
aI546
aI546
aI546
aI546
aI546
aI546
aI546
aI546
aI546
aI546
aI546
aI1634
aI1634
aI1634
aI1634
aI1634
aI1634
aI1634
aI1634
aI1634
aI1634
aI1634
aI1634
aI1634
aI1634
aI1634
aI1634
aI1634
aI1634
aI1634
aI1634
aI1634
aF0.007326007326007326
aF0.47985347985347987
aF0.9340659340659341
aF0.9945054945054945
aF1.0
aF1.0
aF1.0
aF1.0
aF1.0
aF1.0
aF1.0
aF1.0
aF1.0
aF1.0
aF1.0
aF1.0
aF1.0
aF1.0
aF1.0
aF1.0
aF1.0
aF0.17258261933904528
aF0.30966952264381886
aF0.7050183598531212
aF0.8984088127294981
aF0.9749082007343941
aF0.9957160342717258
aF0.9993880048959608
aF1.0
aF1.0
aF1.0
aF1.0
aF1.0
aF1.0
aF1.0
aF1.0
aF1.0
aF1.0
aF1.0
aF1.0
aF1.0
aF1.0
aF0.7138331573389651
aF0.7988668555240793
aF0.9305019305019305
aF0.9822485207100592
aF1.0
aF1.0
aF1.0
aI1
aI1
aI1
aI1
aI1
aI1
aI1
aI1
aI1
aI1
aI1
aI1
aI1
aI1
aF0.8274173806609547
aF0.6903304773561811
aF0.29498164014687883
aF0.10159118727050184
aF0.025091799265605876
aF0.004283965728274173
aF0.0006119951040391676
aF0.0
aF0.0
aF0.0
aF0.0
aF0.0
aF0.0
aF0.0
aF0.0
aF0.0
aF0.0
aF0.0
aF0.0
aF0.0
aF0.0
ag77
(g80
S'\x00\x00\x00\x00\x00\x00\x00\x00'
p422
tp423
Rp424
ag77
(g80
S'\x9a\x99\x99\x99\x99\x99\xa9?'
p425
tp426
Rp427
ag77
(g80
S'\x9a\x99\x99\x99\x99\x99\xb9?'
p428
tp429
Rp430
ag77
(g80
S'433333\xc3?'
p431
tp432
Rp433
ag77
(g80
S'\x9a\x99\x99\x99\x99\x99\xc9?'
p434
tp435
Rp436
ag77
(g80
S'\x00\x00\x00\x00\x00\x00\xd0?'
p437
tp438
Rp439
ag77
(g80
S'433333\xd3?'
p440
tp441
Rp442
ag77
(g80
S'gfffff\xd6?'
p443
tp444
Rp445
ag77
(g80
S'\x9a\x99\x99\x99\x99\x99\xd9?'
p446
tp447
Rp448
ag77
(g80
S'\xcd\xcc\xcc\xcc\xcc\xcc\xdc?'
p449
tp450
Rp451
ag77
(g80
S'\x00\x00\x00\x00\x00\x00\xe0?'
p452
tp453
Rp454
ag77
(g80
S'\x9a\x99\x99\x99\x99\x99\xe1?'
p455
tp456
Rp457
ag77
(g80
S'433333\xe3?'
p458
tp459
Rp460
ag77
(g80
S'\xcd\xcc\xcc\xcc\xcc\xcc\xe4?'
p461
tp462
Rp463
ag77
(g80
S'gfffff\xe6?'
p464
tp465
Rp466
ag77
(g80
S'\x00\x00\x00\x00\x00\x00\xe8?'
p467
tp468
Rp469
ag77
(g80
S'\x9a\x99\x99\x99\x99\x99\xe9?'
p470
tp471
Rp472
ag77
(g80
S'433333\xeb?'
p473
tp474
Rp475
ag77
(g80
S'\xcd\xcc\xcc\xcc\xcc\xcc\xec?'
p476
tp477
Rp478
ag77
(g80
S'gfffff\xee?'
p479
tp480
Rp481
ag77
(g80
S'\x00\x00\x00\x00\x00\x00\xf0?'
p482
tp483
Rp484
atp485
ba(lp486
g19
(g20
(dp487
g22
g23
(g24
(I0
tp488
g26
tp489
Rp490
(I1
(I15
tp491
g33
I00
(lp492
g37
ag38
ag39
ag40
ag41
ag42
ag43
ag44
ag45
ag46
ag47
ag48
ag49
ag50
ag51
atp493
bsg53
Nstp494
Rp495
a(dp496
g158
(dp497
g160
g397
sg161
(lp498
(dp499
g164
g165
(I0
I15
I1
tp500
Rp501
sg168
g419
sasstp502
bsbssS'RightMHhook'
p503
(dp504
I25
g4
(g5
g6
Ntp505
Rp506
(dp507
g10
g11
sg12
g13
sg14
g4
(g15
g6
Ntp508
Rp509
((lp510
g19
(g20
(dp511
g22
g23
(g24
(I0
tp512
g26
tp513
Rp514
(I1
(I15
tp515
g33
I00
(lp516
g37
ag38
ag39
ag40
ag41
ag42
ag43
ag44
ag45
ag46
ag47
ag48
ag49
ag50
ag51
atp517
bsg53
Nstp518
Rp519
ag19
(g56
(dp520
g22
g23
(g24
(I0
tp521
g26
tp522
Rp523
(I1
(I21
tp524
g64
I00
S'\x00\x00\x00\x00\x00\x00\x00\x00\x01\x00\x00\x00\x00\x00\x00\x00\x02\x00\x00\x00\x00\x00\x00\x00\x03\x00\x00\x00\x00\x00\x00\x00\x04\x00\x00\x00\x00\x00\x00\x00\x05\x00\x00\x00\x00\x00\x00\x00\x06\x00\x00\x00\x00\x00\x00\x00\x07\x00\x00\x00\x00\x00\x00\x00\x08\x00\x00\x00\x00\x00\x00\x00\t\x00\x00\x00\x00\x00\x00\x00\n\x00\x00\x00\x00\x00\x00\x00\x0b\x00\x00\x00\x00\x00\x00\x00\x0c\x00\x00\x00\x00\x00\x00\x00\r\x00\x00\x00\x00\x00\x00\x00\x0e\x00\x00\x00\x00\x00\x00\x00\x0f\x00\x00\x00\x00\x00\x00\x00\x10\x00\x00\x00\x00\x00\x00\x00\x11\x00\x00\x00\x00\x00\x00\x00\x12\x00\x00\x00\x00\x00\x00\x00\x13\x00\x00\x00\x00\x00\x00\x00\x14\x00\x00\x00\x00\x00\x00\x00'
p525
tp526
bsg53
Nstp527
Rp528
a(lp529
g23
(g24
(I0
tp530
g26
tp531
Rp532
(I1
(I15
I21
tp533
g33
I01
(lp534
I1175
aI1171
aI940
aI571
aI297
aI127
aI39
aI5
aI0
aI0
aI0
aI0
aI0
aI0
aI0
aI0
aI0
aI0
aI0
aI0
aI0
aI148
aI125
aI31
aI5
aI1
aI0
aI0
aI0
aI0
aI0
aI0
aI0
aI0
aI0
aI0
aI0
aI0
aI0
aI0
aI0
aI0
aI0
aI23
aI117
aI143
aI147
aI148
aI148
aI148
aI148
aI148
aI148
aI148
aI148
aI148
aI148
aI148
aI148
aI148
aI148
aI148
aI148
aI857
aI861
aI1092
aI1461
aI1735
aI1905
aI1993
aI2027
aI2032
aI2032
aI2032
aI2032
aI2032
aI2032
aI2032
aI2032
aI2032
aI2032
aI2032
aI2032
aI2032
aI2032
aI2032
aI2032
aI2032
aI2032
aI2032
aI2032
aI2032
aI2032
aI2032
aI2032
aI2032
aI2032
aI2032
aI2032
aI2032
aI2032
aI2032
aI2032
aI2032
aI2032
aI148
aI148
aI148
aI148
aI148
aI148
aI148
aI148
aI148
aI148
aI148
aI148
aI148
aI148
aI148
aI148
aI148
aI148
aI148
aI148
aI148
aF0.578248031496063
aF0.5762795275590551
aF0.4625984251968504
aF0.281003937007874
aF0.14616141732283464
aF0.0625
aF0.019192913385826772
aF0.0024606299212598425
aF0.0
aF0.0
aF0.0
aF0.0
aF0.0
aF0.0
aF0.0
aF0.0
aF0.0
aF0.0
aF0.0
aF0.0
aF0.0
aF1.0
aF0.8445945945945946
aF0.20945945945945946
aF0.033783783783783786
aF0.006756756756756757
aF0.0
aF0.0
aF0.0
aF0.0
aF0.0
aF0.0
aF0.0
aF0.0
aF0.0
aF0.0
aF0.0
aF0.0
aF0.0
aF0.0
aF0.0
aF0.0
aI148
aI148
aI148
aI148
aI148
aI148
aI148
aI148
aI148
aI148
aI148
aI148
aI148
aI148
aI148
aI148
aI148
aI148
aI148
aI148
aI148
aI2032
aI2032
aI2032
aI2032
aI2032
aI2032
aI2032
aI2032
aI2032
aI2032
aI2032
aI2032
aI2032
aI2032
aI2032
aI2032
aI2032
aI2032
aI2032
aI2032
aI2032
aF0.0
aF0.1554054054054054
aF0.7905405405405406
aF0.9662162162162162
aF0.9932432432432432
aF1.0
aF1.0
aF1.0
aF1.0
aF1.0
aF1.0
aF1.0
aF1.0
aF1.0
aF1.0
aF1.0
aF1.0
aF1.0
aF1.0
aF1.0
aF1.0
aF0.421751968503937
aF0.4237204724409449
aF0.5374015748031497
aF0.718996062992126
aF0.8538385826771654
aF0.9375
aF0.9808070866141733
aF0.9975393700787402
aF1.0
aF1.0
aF1.0
aF1.0
aF1.0
aF1.0
aF1.0
aF1.0
aF1.0
aF1.0
aF1.0
aF1.0
aF1.0
aF0.8881330309901738
aF0.9035493827160493
aF0.9680741503604532
aF0.9913194444444444
aF0.9966442953020134
aF1.0
aF1.0
aF1.0
aI1
aI1
aI1
aI1
aI1
aI1
aI1
aI1
aI1
aI1
aI1
aI1
aI1
aF0.578248031496063
aF0.5762795275590551
aF0.4625984251968504
aF0.281003937007874
aF0.14616141732283464
aF0.0625
aF0.019192913385826772
aF0.0024606299212598425
aF0.0
aF0.0
aF0.0
aF0.0
aF0.0
aF0.0
aF0.0
aF0.0
aF0.0
aF0.0
aF0.0
aF0.0
aF0.0
ag77
(g80
S'\x00\x00\x00\x00\x00\x00\x00\x00'
p535
tp536
Rp537
ag77
(g80
S'\x9a\x99\x99\x99\x99\x99\xa9?'
p538
tp539
Rp540
ag77
(g80
S'\x9a\x99\x99\x99\x99\x99\xb9?'
p541
tp542
Rp543
ag77
(g80
S'433333\xc3?'
p544
tp545
Rp546
ag77
(g80
S'\x9a\x99\x99\x99\x99\x99\xc9?'
p547
tp548
Rp549
ag77
(g80
S'\x00\x00\x00\x00\x00\x00\xd0?'
p550
tp551
Rp552
ag77
(g80
S'433333\xd3?'
p553
tp554
Rp555
ag77
(g80
S'gfffff\xd6?'
p556
tp557
Rp558
ag77
(g80
S'\x9a\x99\x99\x99\x99\x99\xd9?'
p559
tp560
Rp561
ag77
(g80
S'\xcd\xcc\xcc\xcc\xcc\xcc\xdc?'
p562
tp563
Rp564
ag77
(g80
S'\x00\x00\x00\x00\x00\x00\xe0?'
p565
tp566
Rp567
ag77
(g80
S'\x9a\x99\x99\x99\x99\x99\xe1?'
p568
tp569
Rp570
ag77
(g80
S'433333\xe3?'
p571
tp572
Rp573
ag77
(g80
S'\xcd\xcc\xcc\xcc\xcc\xcc\xe4?'
p574
tp575
Rp576
ag77
(g80
S'gfffff\xe6?'
p577
tp578
Rp579
ag77
(g80
S'\x00\x00\x00\x00\x00\x00\xe8?'
p580
tp581
Rp582
ag77
(g80
S'\x9a\x99\x99\x99\x99\x99\xe9?'
p583
tp584
Rp585
ag77
(g80
S'433333\xeb?'
p586
tp587
Rp588
ag77
(g80
S'\xcd\xcc\xcc\xcc\xcc\xcc\xec?'
p589
tp590
Rp591
ag77
(g80
S'gfffff\xee?'
p592
tp593
Rp594
ag77
(g80
S'\x00\x00\x00\x00\x00\x00\xf0?'
p595
tp596
Rp597
atp598
ba(lp599
g19
(g20
(dp600
g22
g23
(g24
(I0
tp601
g26
tp602
Rp603
(I1
(I15
tp604
g33
I00
(lp605
g37
ag38
ag39
ag40
ag41
ag42
ag43
ag44
ag45
ag46
ag47
ag48
ag49
ag50
ag51
atp606
bsg53
Nstp607
Rp608
a(dp609
g158
(dp610
g160
g510
sg161
(lp611
(dp612
g164
g165
(I0
I15
I1
tp613
Rp614
sg168
g532
sasstp615
bsbsI50
g4
(g5
g6
Ntp616
Rp617
(dp618
g10
g11
sg12
g13
sg14
g4
(g15
g6
Ntp619
Rp620
((lp621
g19
(g20
(dp622
g22
g23
(g24
(I0
tp623
g26
tp624
Rp625
(I1
(I15
tp626
g33
I00
(lp627
g37
ag38
ag39
ag40
ag41
ag42
ag43
ag44
ag45
ag46
ag47
ag48
ag49
ag50
ag51
atp628
bsg53
Nstp629
Rp630
ag19
(g56
(dp631
g22
g23
(g24
(I0
tp632
g26
tp633
Rp634
(I1
(I21
tp635
g64
I00
S'\x00\x00\x00\x00\x00\x00\x00\x00\x01\x00\x00\x00\x00\x00\x00\x00\x02\x00\x00\x00\x00\x00\x00\x00\x03\x00\x00\x00\x00\x00\x00\x00\x04\x00\x00\x00\x00\x00\x00\x00\x05\x00\x00\x00\x00\x00\x00\x00\x06\x00\x00\x00\x00\x00\x00\x00\x07\x00\x00\x00\x00\x00\x00\x00\x08\x00\x00\x00\x00\x00\x00\x00\t\x00\x00\x00\x00\x00\x00\x00\n\x00\x00\x00\x00\x00\x00\x00\x0b\x00\x00\x00\x00\x00\x00\x00\x0c\x00\x00\x00\x00\x00\x00\x00\r\x00\x00\x00\x00\x00\x00\x00\x0e\x00\x00\x00\x00\x00\x00\x00\x0f\x00\x00\x00\x00\x00\x00\x00\x10\x00\x00\x00\x00\x00\x00\x00\x11\x00\x00\x00\x00\x00\x00\x00\x12\x00\x00\x00\x00\x00\x00\x00\x13\x00\x00\x00\x00\x00\x00\x00\x14\x00\x00\x00\x00\x00\x00\x00'
p636
tp637
bsg53
Nstp638
Rp639
a(lp640
g23
(g24
(I0
tp641
g26
tp642
Rp643
(I1
(I15
I21
tp644
g33
I01
(lp645
I1660
aI1650
aI1241
aI700
aI337
aI141
aI44
aI6
aI0
aI0
aI0
aI0
aI0
aI0
aI0
aI0
aI0
aI0
aI0
aI0
aI0
aI148
aI125
aI31
aI5
aI1
aI0
aI0
aI0
aI0
aI0
aI0
aI0
aI0
aI0
aI0
aI0
aI0
aI0
aI0
aI0
aI0
aI0
aI23
aI117
aI143
aI147
aI148
aI148
aI148
aI148
aI148
aI148
aI148
aI148
aI148
aI148
aI148
aI148
aI148
aI148
aI148
aI148
aI372
aI382
aI791
aI1332
aI1695
aI1891
aI1988
aI2026
aI2032
aI2032
aI2032
aI2032
aI2032
aI2032
aI2032
aI2032
aI2032
aI2032
aI2032
aI2032
aI2032
aI2032
aI2032
aI2032
aI2032
aI2032
aI2032
aI2032
aI2032
aI2032
aI2032
aI2032
aI2032
aI2032
aI2032
aI2032
aI2032
aI2032
aI2032
aI2032
aI2032
aI2032
aI148
aI148
aI148
aI148
aI148
aI148
aI148
aI148
aI148
aI148
aI148
aI148
aI148
aI148
aI148
aI148
aI148
aI148
aI148
aI148
aI148
aF0.8169291338582677
aF0.812007874015748
aF0.6107283464566929
aF0.34448818897637795
aF0.1658464566929134
aF0.06938976377952756
aF0.021653543307086614
aF0.002952755905511811
aF0.0
aF0.0
aF0.0
aF0.0
aF0.0
aF0.0
aF0.0
aF0.0
aF0.0
aF0.0
aF0.0
aF0.0
aF0.0
aF1.0
aF0.8445945945945946
aF0.20945945945945946
aF0.033783783783783786
aF0.006756756756756757
aF0.0
aF0.0
aF0.0
aF0.0
aF0.0
aF0.0
aF0.0
aF0.0
aF0.0
aF0.0
aF0.0
aF0.0
aF0.0
aF0.0
aF0.0
aF0.0
aI148
aI148
aI148
aI148
aI148
aI148
aI148
aI148
aI148
aI148
aI148
aI148
aI148
aI148
aI148
aI148
aI148
aI148
aI148
aI148
aI148
aI2032
aI2032
aI2032
aI2032
aI2032
aI2032
aI2032
aI2032
aI2032
aI2032
aI2032
aI2032
aI2032
aI2032
aI2032
aI2032
aI2032
aI2032
aI2032
aI2032
aI2032
aF0.0
aF0.1554054054054054
aF0.7905405405405406
aF0.9662162162162162
aF0.9932432432432432
aF1.0
aF1.0
aF1.0
aF1.0
aF1.0
aF1.0
aF1.0
aF1.0
aF1.0
aF1.0
aF1.0
aF1.0
aF1.0
aF1.0
aF1.0
aF1.0
aF0.1830708661417323
aF0.18799212598425197
aF0.38927165354330706
aF0.655511811023622
aF0.8341535433070866
aF0.9306102362204725
aF0.9783464566929134
aF0.9970472440944882
aF1.0
aF1.0
aF1.0
aF1.0
aF1.0
aF1.0
aF1.0
aF1.0
aF1.0
aF1.0
aF1.0
aF1.0
aF1.0
aF0.918141592920354
aF0.9295774647887324
aF0.97562893081761
aF0.9929078014184397
aF0.9970414201183432
aF1.0
aF1.0
aF1.0
aI1
aI1
aI1
aI1
aI1
aI1
aI1
aI1
aI1
aI1
aI1
aI1
aI1
aF0.8169291338582677
aF0.812007874015748
aF0.6107283464566929
aF0.34448818897637795
aF0.1658464566929134
aF0.06938976377952756
aF0.021653543307086614
aF0.002952755905511811
aF0.0
aF0.0
aF0.0
aF0.0
aF0.0
aF0.0
aF0.0
aF0.0
aF0.0
aF0.0
aF0.0
aF0.0
aF0.0
ag77
(g80
S'\x00\x00\x00\x00\x00\x00\x00\x00'
p646
tp647
Rp648
ag77
(g80
S'\x9a\x99\x99\x99\x99\x99\xa9?'
p649
tp650
Rp651
ag77
(g80
S'\x9a\x99\x99\x99\x99\x99\xb9?'
p652
tp653
Rp654
ag77
(g80
S'433333\xc3?'
p655
tp656
Rp657
ag77
(g80
S'\x9a\x99\x99\x99\x99\x99\xc9?'
p658
tp659
Rp660
ag77
(g80
S'\x00\x00\x00\x00\x00\x00\xd0?'
p661
tp662
Rp663
ag77
(g80
S'433333\xd3?'
p664
tp665
Rp666
ag77
(g80
S'gfffff\xd6?'
p667
tp668
Rp669
ag77
(g80
S'\x9a\x99\x99\x99\x99\x99\xd9?'
p670
tp671
Rp672
ag77
(g80
S'\xcd\xcc\xcc\xcc\xcc\xcc\xdc?'
p673
tp674
Rp675
ag77
(g80
S'\x00\x00\x00\x00\x00\x00\xe0?'
p676
tp677
Rp678
ag77
(g80
S'\x9a\x99\x99\x99\x99\x99\xe1?'
p679
tp680
Rp681
ag77
(g80
S'433333\xe3?'
p682
tp683
Rp684
ag77
(g80
S'\xcd\xcc\xcc\xcc\xcc\xcc\xe4?'
p685
tp686
Rp687
ag77
(g80
S'gfffff\xe6?'
p688
tp689
Rp690
ag77
(g80
S'\x00\x00\x00\x00\x00\x00\xe8?'
p691
tp692
Rp693
ag77
(g80
S'\x9a\x99\x99\x99\x99\x99\xe9?'
p694
tp695
Rp696
ag77
(g80
S'433333\xeb?'
p697
tp698
Rp699
ag77
(g80
S'\xcd\xcc\xcc\xcc\xcc\xcc\xec?'
p700
tp701
Rp702
ag77
(g80
S'gfffff\xee?'
p703
tp704
Rp705
ag77
(g80
S'\x00\x00\x00\x00\x00\x00\xf0?'
p706
tp707
Rp708
atp709
ba(lp710
g19
(g20
(dp711
g22
g23
(g24
(I0
tp712
g26
tp713
Rp714
(I1
(I15
tp715
g33
I00
(lp716
g37
ag38
ag39
ag40
ag41
ag42
ag43
ag44
ag45
ag46
ag47
ag48
ag49
ag50
ag51
atp717
bsg53
Nstp718
Rp719
a(dp720
g158
(dp721
g160
g621
sg161
(lp722
(dp723
g164
g165
(I0
I15
I1
tp724
Rp725
sg168
g643
sasstp726
bsbsI75
g4
(g5
g6
Ntp727
Rp728
(dp729
g10
g11
sg12
g13
sg14
g4
(g15
g6
Ntp730
Rp731
((lp732
g19
(g20
(dp733
g22
g23
(g24
(I0
tp734
g26
tp735
Rp736
(I1
(I15
tp737
g33
I00
(lp738
g37
ag38
ag39
ag40
ag41
ag42
ag43
ag44
ag45
ag46
ag47
ag48
ag49
ag50
ag51
atp739
bsg53
Nstp740
Rp741
ag19
(g56
(dp742
g22
g23
(g24
(I0
tp743
g26
tp744
Rp745
(I1
(I21
tp746
g64
I00
S'\x00\x00\x00\x00\x00\x00\x00\x00\x01\x00\x00\x00\x00\x00\x00\x00\x02\x00\x00\x00\x00\x00\x00\x00\x03\x00\x00\x00\x00\x00\x00\x00\x04\x00\x00\x00\x00\x00\x00\x00\x05\x00\x00\x00\x00\x00\x00\x00\x06\x00\x00\x00\x00\x00\x00\x00\x07\x00\x00\x00\x00\x00\x00\x00\x08\x00\x00\x00\x00\x00\x00\x00\t\x00\x00\x00\x00\x00\x00\x00\n\x00\x00\x00\x00\x00\x00\x00\x0b\x00\x00\x00\x00\x00\x00\x00\x0c\x00\x00\x00\x00\x00\x00\x00\r\x00\x00\x00\x00\x00\x00\x00\x0e\x00\x00\x00\x00\x00\x00\x00\x0f\x00\x00\x00\x00\x00\x00\x00\x10\x00\x00\x00\x00\x00\x00\x00\x11\x00\x00\x00\x00\x00\x00\x00\x12\x00\x00\x00\x00\x00\x00\x00\x13\x00\x00\x00\x00\x00\x00\x00\x14\x00\x00\x00\x00\x00\x00\x00'
p747
tp748
bsg53
Nstp749
Rp750
a(lp751
g23
(g24
(I0
tp752
g26
tp753
Rp754
(I1
(I15
I21
tp755
g33
I01
(lp756
I1799
aI1779
aI1291
aI707
aI337
aI141
aI44
aI6
aI0
aI0
aI0
aI0
aI0
aI0
aI0
aI0
aI0
aI0
aI0
aI0
aI0
aI148
aI125
aI31
aI5
aI1
aI0
aI0
aI0
aI0
aI0
aI0
aI0
aI0
aI0
aI0
aI0
aI0
aI0
aI0
aI0
aI0
aI0
aI23
aI117
aI143
aI147
aI148
aI148
aI148
aI148
aI148
aI148
aI148
aI148
aI148
aI148
aI148
aI148
aI148
aI148
aI148
aI148
aI233
aI253
aI741
aI1325
aI1695
aI1891
aI1988
aI2026
aI2032
aI2032
aI2032
aI2032
aI2032
aI2032
aI2032
aI2032
aI2032
aI2032
aI2032
aI2032
aI2032
aI2032
aI2032
aI2032
aI2032
aI2032
aI2032
aI2032
aI2032
aI2032
aI2032
aI2032
aI2032
aI2032
aI2032
aI2032
aI2032
aI2032
aI2032
aI2032
aI2032
aI2032
aI148
aI148
aI148
aI148
aI148
aI148
aI148
aI148
aI148
aI148
aI148
aI148
aI148
aI148
aI148
aI148
aI148
aI148
aI148
aI148
aI148
aF0.8853346456692913
aF0.875492125984252
aF0.6353346456692913
aF0.3479330708661417
aF0.1658464566929134
aF0.06938976377952756
aF0.021653543307086614
aF0.002952755905511811
aF0.0
aF0.0
aF0.0
aF0.0
aF0.0
aF0.0
aF0.0
aF0.0
aF0.0
aF0.0
aF0.0
aF0.0
aF0.0
aF1.0
aF0.8445945945945946
aF0.20945945945945946
aF0.033783783783783786
aF0.006756756756756757
aF0.0
aF0.0
aF0.0
aF0.0
aF0.0
aF0.0
aF0.0
aF0.0
aF0.0
aF0.0
aF0.0
aF0.0
aF0.0
aF0.0
aF0.0
aF0.0
aI148
aI148
aI148
aI148
aI148
aI148
aI148
aI148
aI148
aI148
aI148
aI148
aI148
aI148
aI148
aI148
aI148
aI148
aI148
aI148
aI148
aI2032
aI2032
aI2032
aI2032
aI2032
aI2032
aI2032
aI2032
aI2032
aI2032
aI2032
aI2032
aI2032
aI2032
aI2032
aI2032
aI2032
aI2032
aI2032
aI2032
aI2032
aF0.0
aF0.1554054054054054
aF0.7905405405405406
aF0.9662162162162162
aF0.9932432432432432
aF1.0
aF1.0
aF1.0
aF1.0
aF1.0
aF1.0
aF1.0
aF1.0
aF1.0
aF1.0
aF1.0
aF1.0
aF1.0
aF1.0
aF1.0
aF1.0
aF0.11466535433070867
aF0.12450787401574803
aF0.3646653543307087
aF0.6520669291338582
aF0.8341535433070866
aF0.9306102362204725
aF0.9783464566929134
aF0.9970472440944882
aF1.0
aF1.0
aF1.0
aF1.0
aF1.0
aF1.0
aF1.0
aF1.0
aF1.0
aF1.0
aF1.0
aF1.0
aF1.0
aF0.9239856189008732
aF0.9343487394957983
aF0.9765506807866868
aF0.9929775280898876
aF0.9970414201183432
aF1.0
aF1.0
aF1.0
aI1
aI1
aI1
aI1
aI1
aI1
aI1
aI1
aI1
aI1
aI1
aI1
aI1
aF0.8853346456692913
aF0.875492125984252
aF0.6353346456692913
aF0.3479330708661417
aF0.1658464566929134
aF0.06938976377952756
aF0.021653543307086614
aF0.002952755905511811
aF0.0
aF0.0
aF0.0
aF0.0
aF0.0
aF0.0
aF0.0
aF0.0
aF0.0
aF0.0
aF0.0
aF0.0
aF0.0
ag77
(g80
S'\x00\x00\x00\x00\x00\x00\x00\x00'
p757
tp758
Rp759
ag77
(g80
S'\x9a\x99\x99\x99\x99\x99\xa9?'
p760
tp761
Rp762
ag77
(g80
S'\x9a\x99\x99\x99\x99\x99\xb9?'
p763
tp764
Rp765
ag77
(g80
S'433333\xc3?'
p766
tp767
Rp768
ag77
(g80
S'\x9a\x99\x99\x99\x99\x99\xc9?'
p769
tp770
Rp771
ag77
(g80
S'\x00\x00\x00\x00\x00\x00\xd0?'
p772
tp773
Rp774
ag77
(g80
S'433333\xd3?'
p775
tp776
Rp777
ag77
(g80
S'gfffff\xd6?'
p778
tp779
Rp780
ag77
(g80
S'\x9a\x99\x99\x99\x99\x99\xd9?'
p781
tp782
Rp783
ag77
(g80
S'\xcd\xcc\xcc\xcc\xcc\xcc\xdc?'
p784
tp785
Rp786
ag77
(g80
S'\x00\x00\x00\x00\x00\x00\xe0?'
p787
tp788
Rp789
ag77
(g80
S'\x9a\x99\x99\x99\x99\x99\xe1?'
p790
tp791
Rp792
ag77
(g80
S'433333\xe3?'
p793
tp794
Rp795
ag77
(g80
S'\xcd\xcc\xcc\xcc\xcc\xcc\xe4?'
p796
tp797
Rp798
ag77
(g80
S'gfffff\xe6?'
p799
tp800
Rp801
ag77
(g80
S'\x00\x00\x00\x00\x00\x00\xe8?'
p802
tp803
Rp804
ag77
(g80
S'\x9a\x99\x99\x99\x99\x99\xe9?'
p805
tp806
Rp807
ag77
(g80
S'433333\xeb?'
p808
tp809
Rp810
ag77
(g80
S'\xcd\xcc\xcc\xcc\xcc\xcc\xec?'
p811
tp812
Rp813
ag77
(g80
S'gfffff\xee?'
p814
tp815
Rp816
ag77
(g80
S'\x00\x00\x00\x00\x00\x00\xf0?'
p817
tp818
Rp819
atp820
ba(lp821
g19
(g20
(dp822
g22
g23
(g24
(I0
tp823
g26
tp824
Rp825
(I1
(I15
tp826
g33
I00
(lp827
g37
ag38
ag39
ag40
ag41
ag42
ag43
ag44
ag45
ag46
ag47
ag48
ag49
ag50
ag51
atp828
bsg53
Nstp829
Rp830
a(dp831
g158
(dp832
g160
g732
sg161
(lp833
(dp834
g164
g165
(I0
I15
I1
tp835
Rp836
sg168
g754
sasstp837
bsbsI100
g4
(g5
g6
Ntp838
Rp839
(dp840
g10
g11
sg12
g13
sg14
g4
(g15
g6
Ntp841
Rp842
((lp843
g19
(g20
(dp844
g22
g23
(g24
(I0
tp845
g26
tp846
Rp847
(I1
(I15
tp848
g33
I00
(lp849
g37
ag38
ag39
ag40
ag41
ag42
ag43
ag44
ag45
ag46
ag47
ag48
ag49
ag50
ag51
atp850
bsg53
Nstp851
Rp852
ag19
(g56
(dp853
g22
g23
(g24
(I0
tp854
g26
tp855
Rp856
(I1
(I21
tp857
g64
I00
S'\x00\x00\x00\x00\x00\x00\x00\x00\x01\x00\x00\x00\x00\x00\x00\x00\x02\x00\x00\x00\x00\x00\x00\x00\x03\x00\x00\x00\x00\x00\x00\x00\x04\x00\x00\x00\x00\x00\x00\x00\x05\x00\x00\x00\x00\x00\x00\x00\x06\x00\x00\x00\x00\x00\x00\x00\x07\x00\x00\x00\x00\x00\x00\x00\x08\x00\x00\x00\x00\x00\x00\x00\t\x00\x00\x00\x00\x00\x00\x00\n\x00\x00\x00\x00\x00\x00\x00\x0b\x00\x00\x00\x00\x00\x00\x00\x0c\x00\x00\x00\x00\x00\x00\x00\r\x00\x00\x00\x00\x00\x00\x00\x0e\x00\x00\x00\x00\x00\x00\x00\x0f\x00\x00\x00\x00\x00\x00\x00\x10\x00\x00\x00\x00\x00\x00\x00\x11\x00\x00\x00\x00\x00\x00\x00\x12\x00\x00\x00\x00\x00\x00\x00\x13\x00\x00\x00\x00\x00\x00\x00\x14\x00\x00\x00\x00\x00\x00\x00'
p858
tp859
bsg53
Nstp860
Rp861
a(lp862
g23
(g24
(I0
tp863
g26
tp864
Rp865
(I1
(I15
I21
tp866
g33
I01
(lp867
I1865
aI1837
aI1302
aI707
aI337
aI141
aI44
aI6
aI0
aI0
aI0
aI0
aI0
aI0
aI0
aI0
aI0
aI0
aI0
aI0
aI0
aI148
aI125
aI31
aI5
aI1
aI0
aI0
aI0
aI0
aI0
aI0
aI0
aI0
aI0
aI0
aI0
aI0
aI0
aI0
aI0
aI0
aI0
aI23
aI117
aI143
aI147
aI148
aI148
aI148
aI148
aI148
aI148
aI148
aI148
aI148
aI148
aI148
aI148
aI148
aI148
aI148
aI148
aI167
aI195
aI730
aI1325
aI1695
aI1891
aI1988
aI2026
aI2032
aI2032
aI2032
aI2032
aI2032
aI2032
aI2032
aI2032
aI2032
aI2032
aI2032
aI2032
aI2032
aI2032
aI2032
aI2032
aI2032
aI2032
aI2032
aI2032
aI2032
aI2032
aI2032
aI2032
aI2032
aI2032
aI2032
aI2032
aI2032
aI2032
aI2032
aI2032
aI2032
aI2032
aI148
aI148
aI148
aI148
aI148
aI148
aI148
aI148
aI148
aI148
aI148
aI148
aI148
aI148
aI148
aI148
aI148
aI148
aI148
aI148
aI148
aF0.9178149606299213
aF0.9040354330708661
aF0.640748031496063
aF0.3479330708661417
aF0.1658464566929134
aF0.06938976377952756
aF0.021653543307086614
aF0.002952755905511811
aF0.0
aF0.0
aF0.0
aF0.0
aF0.0
aF0.0
aF0.0
aF0.0
aF0.0
aF0.0
aF0.0
aF0.0
aF0.0
aF1.0
aF0.8445945945945946
aF0.20945945945945946
aF0.033783783783783786
aF0.006756756756756757
aF0.0
aF0.0
aF0.0
aF0.0
aF0.0
aF0.0
aF0.0
aF0.0
aF0.0
aF0.0
aF0.0
aF0.0
aF0.0
aF0.0
aF0.0
aF0.0
aI148
aI148
aI148
aI148
aI148
aI148
aI148
aI148
aI148
aI148
aI148
aI148
aI148
aI148
aI148
aI148
aI148
aI148
aI148
aI148
aI148
aI2032
aI2032
aI2032
aI2032
aI2032
aI2032
aI2032
aI2032
aI2032
aI2032
aI2032
aI2032
aI2032
aI2032
aI2032
aI2032
aI2032
aI2032
aI2032
aI2032
aI2032
aF0.0
aF0.1554054054054054
aF0.7905405405405406
aF0.9662162162162162
aF0.9932432432432432
aF1.0
aF1.0
aF1.0
aF1.0
aF1.0
aF1.0
aF1.0
aF1.0
aF1.0
aF1.0
aF1.0
aF1.0
aF1.0
aF1.0
aF1.0
aF1.0
aF0.08218503937007875
aF0.09596456692913385
aF0.359251968503937
aF0.6520669291338582
aF0.8341535433070866
aF0.9306102362204725
aF0.9783464566929134
aF0.9970472440944882
aF1.0
aF1.0
aF1.0
aF1.0
aF1.0
aF1.0
aF1.0
aF1.0
aF1.0
aF1.0
aF1.0
aF1.0
aF1.0
aF0.9264778936910084
aF0.936289500509684
aF0.9767441860465116
aF0.9929775280898876
aF0.9970414201183432
aF1.0
aF1.0
aF1.0
aI1
aI1
aI1
aI1
aI1
aI1
aI1
aI1
aI1
aI1
aI1
aI1
aI1
aF0.9178149606299213
aF0.9040354330708661
aF0.640748031496063
aF0.3479330708661417
aF0.1658464566929134
aF0.06938976377952756
aF0.021653543307086614
aF0.002952755905511811
aF0.0
aF0.0
aF0.0
aF0.0
aF0.0
aF0.0
aF0.0
aF0.0
aF0.0
aF0.0
aF0.0
aF0.0
aF0.0
ag77
(g80
S'\x00\x00\x00\x00\x00\x00\x00\x00'
p868
tp869
Rp870
ag77
(g80
S'\x9a\x99\x99\x99\x99\x99\xa9?'
p871
tp872
Rp873
ag77
(g80
S'\x9a\x99\x99\x99\x99\x99\xb9?'
p874
tp875
Rp876
ag77
(g80
S'433333\xc3?'
p877
tp878
Rp879
ag77
(g80
S'\x9a\x99\x99\x99\x99\x99\xc9?'
p880
tp881
Rp882
ag77
(g80
S'\x00\x00\x00\x00\x00\x00\xd0?'
p883
tp884
Rp885
ag77
(g80
S'433333\xd3?'
p886
tp887
Rp888
ag77
(g80
S'gfffff\xd6?'
p889
tp890
Rp891
ag77
(g80
S'\x9a\x99\x99\x99\x99\x99\xd9?'
p892
tp893
Rp894
ag77
(g80
S'\xcd\xcc\xcc\xcc\xcc\xcc\xdc?'
p895
tp896
Rp897
ag77
(g80
S'\x00\x00\x00\x00\x00\x00\xe0?'
p898
tp899
Rp900
ag77
(g80
S'\x9a\x99\x99\x99\x99\x99\xe1?'
p901
tp902
Rp903
ag77
(g80
S'433333\xe3?'
p904
tp905
Rp906
ag77
(g80
S'\xcd\xcc\xcc\xcc\xcc\xcc\xe4?'
p907
tp908
Rp909
ag77
(g80
S'gfffff\xe6?'
p910
tp911
Rp912
ag77
(g80
S'\x00\x00\x00\x00\x00\x00\xe8?'
p913
tp914
Rp915
ag77
(g80
S'\x9a\x99\x99\x99\x99\x99\xe9?'
p916
tp917
Rp918
ag77
(g80
S'433333\xeb?'
p919
tp920
Rp921
ag77
(g80
S'\xcd\xcc\xcc\xcc\xcc\xcc\xec?'
p922
tp923
Rp924
ag77
(g80
S'gfffff\xee?'
p925
tp926
Rp927
ag77
(g80
S'\x00\x00\x00\x00\x00\x00\xf0?'
p928
tp929
Rp930
atp931
ba(lp932
g19
(g20
(dp933
g22
g23
(g24
(I0
tp934
g26
tp935
Rp936
(I1
(I15
tp937
g33
I00
(lp938
g37
ag38
ag39
ag40
ag41
ag42
ag43
ag44
ag45
ag46
ag47
ag48
ag49
ag50
ag51
atp939
bsg53
Nstp940
Rp941
a(dp942
g158
(dp943
g160
g843
sg161
(lp944
(dp945
g164
g165
(I0
I15
I1
tp946
Rp947
sg168
g865
sasstp948
bsbssS'CenterBolwigOrgan'
p949
(dp950
I25
g4
(g5
g6
Ntp951
Rp952
(dp953
g10
g11
sg12
g13
sg14
g4
(g15
g6
Ntp954
Rp955
((lp956
g19
(g20
(dp957
g22
g23
(g24
(I0
tp958
g26
tp959
Rp960
(I1
(I15
tp961
g33
I00
(lp962
g37
ag38
ag39
ag40
ag41
ag42
ag43
ag44
ag45
ag46
ag47
ag48
ag49
ag50
ag51
atp963
bsg53
Nstp964
Rp965
ag19
(g56
(dp966
g22
g23
(g24
(I0
tp967
g26
tp968
Rp969
(I1
(I21
tp970
g64
I00
S'\x00\x00\x00\x00\x00\x00\x00\x00\x01\x00\x00\x00\x00\x00\x00\x00\x02\x00\x00\x00\x00\x00\x00\x00\x03\x00\x00\x00\x00\x00\x00\x00\x04\x00\x00\x00\x00\x00\x00\x00\x05\x00\x00\x00\x00\x00\x00\x00\x06\x00\x00\x00\x00\x00\x00\x00\x07\x00\x00\x00\x00\x00\x00\x00\x08\x00\x00\x00\x00\x00\x00\x00\t\x00\x00\x00\x00\x00\x00\x00\n\x00\x00\x00\x00\x00\x00\x00\x0b\x00\x00\x00\x00\x00\x00\x00\x0c\x00\x00\x00\x00\x00\x00\x00\r\x00\x00\x00\x00\x00\x00\x00\x0e\x00\x00\x00\x00\x00\x00\x00\x0f\x00\x00\x00\x00\x00\x00\x00\x10\x00\x00\x00\x00\x00\x00\x00\x11\x00\x00\x00\x00\x00\x00\x00\x12\x00\x00\x00\x00\x00\x00\x00\x13\x00\x00\x00\x00\x00\x00\x00\x14\x00\x00\x00\x00\x00\x00\x00'
p971
tp972
bsg53
Nstp973
Rp974
a(lp975
g23
(g24
(I0
tp976
g26
tp977
Rp978
(I1
(I15
I21
tp979
g33
I01
(lp980
I999
aI995
aI753
aI347
aI114
aI11
aI1
aI0
aI0
aI0
aI0
aI0
aI0
aI0
aI0
aI0
aI0
aI0
aI0
aI0
aI0
aI60
aI55
aI21
aI5
aI0
aI0
aI0
aI0
aI0
aI0
aI0
aI0
aI0
aI0
aI0
aI0
aI0
aI0
aI0
aI0
aI0
aI1
aI6
aI40
aI56
aI61
aI61
aI61
aI61
aI61
aI61
aI61
aI61
aI61
aI61
aI61
aI61
aI61
aI61
aI61
aI61
aI61
aI1120
aI1124
aI1366
aI1772
aI2005
aI2108
aI2118
aI2119
aI2119
aI2119
aI2119
aI2119
aI2119
aI2119
aI2119
aI2119
aI2119
aI2119
aI2119
aI2119
aI2119
aI2119
aI2119
aI2119
aI2119
aI2119
aI2119
aI2119
aI2119
aI2119
aI2119
aI2119
aI2119
aI2119
aI2119
aI2119
aI2119
aI2119
aI2119
aI2119
aI2119
aI2119
aI61
aI61
aI61
aI61
aI61
aI61
aI61
aI61
aI61
aI61
aI61
aI61
aI61
aI61
aI61
aI61
aI61
aI61
aI61
aI61
aI61
aF0.4714487966021708
aF0.4695611137328929
aF0.3553563001415762
aF0.16375648890986313
aF0.053798961774421894
aF0.005191127890514393
aF0.00047192071731949034
aF0.0
aF0.0
aF0.0
aF0.0
aF0.0
aF0.0
aF0.0
aF0.0
aF0.0
aF0.0
aF0.0
aF0.0
aF0.0
aF0.0
aF0.9836065573770492
aF0.9016393442622951
aF0.3442622950819672
aF0.08196721311475409
aF0.0
aF0.0
aF0.0
aF0.0
aF0.0
aF0.0
aF0.0
aF0.0
aF0.0
aF0.0
aF0.0
aF0.0
aF0.0
aF0.0
aF0.0
aF0.0
aF0.0
aI61
aI61
aI61
aI61
aI61
aI61
aI61
aI61
aI61
aI61
aI61
aI61
aI61
aI61
aI61
aI61
aI61
aI61
aI61
aI61
aI61
aI2119
aI2119
aI2119
aI2119
aI2119
aI2119
aI2119
aI2119
aI2119
aI2119
aI2119
aI2119
aI2119
aI2119
aI2119
aI2119
aI2119
aI2119
aI2119
aI2119
aI2119
aF0.01639344262295082
aF0.09836065573770492
aF0.6557377049180327
aF0.9180327868852459
aF1.0
aF1.0
aF1.0
aF1.0
aF1.0
aF1.0
aF1.0
aF1.0
aF1.0
aF1.0
aF1.0
aF1.0
aF1.0
aF1.0
aF1.0
aF1.0
aF1.0
aF0.5285512033978291
aF0.5304388862671071
aF0.6446436998584237
aF0.8362435110901368
aF0.9462010382255781
aF0.9948088721094857
aF0.9995280792826805
aF1.0
aF1.0
aF1.0
aF1.0
aF1.0
aF1.0
aF1.0
aF1.0
aF1.0
aF1.0
aF1.0
aF1.0
aF1.0
aF1.0
aF0.943342776203966
aF0.9476190476190476
aF0.9728682170542635
aF0.9857954545454546
aF1.0
aF1.0
aF1.0
aI1
aI1
aI1
aI1
aI1
aI1
aI1
aI1
aI1
aI1
aI1
aI1
aI1
aI1
aF0.4714487966021708
aF0.4695611137328929
aF0.3553563001415762
aF0.16375648890986313
aF0.053798961774421894
aF0.005191127890514393
aF0.00047192071731949034
aF0.0
aF0.0
aF0.0
aF0.0
aF0.0
aF0.0
aF0.0
aF0.0
aF0.0
aF0.0
aF0.0
aF0.0
aF0.0
aF0.0
ag77
(g80
S'\x00\x00\x00\x00\x00\x00\x00\x00'
p981
tp982
Rp983
ag77
(g80
S'\x9a\x99\x99\x99\x99\x99\xa9?'
p984
tp985
Rp986
ag77
(g80
S'\x9a\x99\x99\x99\x99\x99\xb9?'
p987
tp988
Rp989
ag77
(g80
S'433333\xc3?'
p990
tp991
Rp992
ag77
(g80
S'\x9a\x99\x99\x99\x99\x99\xc9?'
p993
tp994
Rp995
ag77
(g80
S'\x00\x00\x00\x00\x00\x00\xd0?'
p996
tp997
Rp998
ag77
(g80
S'433333\xd3?'
p999
tp1000
Rp1001
ag77
(g80
S'gfffff\xd6?'
p1002
tp1003
Rp1004
ag77
(g80
S'\x9a\x99\x99\x99\x99\x99\xd9?'
p1005
tp1006
Rp1007
ag77
(g80
S'\xcd\xcc\xcc\xcc\xcc\xcc\xdc?'
p1008
tp1009
Rp1010
ag77
(g80
S'\x00\x00\x00\x00\x00\x00\xe0?'
p1011
tp1012
Rp1013
ag77
(g80
S'\x9a\x99\x99\x99\x99\x99\xe1?'
p1014
tp1015
Rp1016
ag77
(g80
S'433333\xe3?'
p1017
tp1018
Rp1019
ag77
(g80
S'\xcd\xcc\xcc\xcc\xcc\xcc\xe4?'
p1020
tp1021
Rp1022
ag77
(g80
S'gfffff\xe6?'
p1023
tp1024
Rp1025
ag77
(g80
S'\x00\x00\x00\x00\x00\x00\xe8?'
p1026
tp1027
Rp1028
ag77
(g80
S'\x9a\x99\x99\x99\x99\x99\xe9?'
p1029
tp1030
Rp1031
ag77
(g80
S'433333\xeb?'
p1032
tp1033
Rp1034
ag77
(g80
S'\xcd\xcc\xcc\xcc\xcc\xcc\xec?'
p1035
tp1036
Rp1037
ag77
(g80
S'gfffff\xee?'
p1038
tp1039
Rp1040
ag77
(g80
S'\x00\x00\x00\x00\x00\x00\xf0?'
p1041
tp1042
Rp1043
atp1044
ba(lp1045
g19
(g20
(dp1046
g22
g23
(g24
(I0
tp1047
g26
tp1048
Rp1049
(I1
(I15
tp1050
g33
I00
(lp1051
g37
ag38
ag39
ag40
ag41
ag42
ag43
ag44
ag45
ag46
ag47
ag48
ag49
ag50
ag51
atp1052
bsg53
Nstp1053
Rp1054
a(dp1055
g158
(dp1056
g160
g956
sg161
(lp1057
(dp1058
g164
g165
(I0
I15
I1
tp1059
Rp1060
sg168
g978
sasstp1061
bsbsI50
g4
(g5
g6
Ntp1062
Rp1063
(dp1064
g10
g11
sg12
g13
sg14
g4
(g15
g6
Ntp1065
Rp1066
((lp1067
g19
(g20
(dp1068
g22
g23
(g24
(I0
tp1069
g26
tp1070
Rp1071
(I1
(I15
tp1072
g33
I00
(lp1073
g37
ag38
ag39
ag40
ag41
ag42
ag43
ag44
ag45
ag46
ag47
ag48
ag49
ag50
ag51
atp1074
bsg53
Nstp1075
Rp1076
ag19
(g56
(dp1077
g22
g23
(g24
(I0
tp1078
g26
tp1079
Rp1080
(I1
(I21
tp1081
g64
I00
S'\x00\x00\x00\x00\x00\x00\x00\x00\x01\x00\x00\x00\x00\x00\x00\x00\x02\x00\x00\x00\x00\x00\x00\x00\x03\x00\x00\x00\x00\x00\x00\x00\x04\x00\x00\x00\x00\x00\x00\x00\x05\x00\x00\x00\x00\x00\x00\x00\x06\x00\x00\x00\x00\x00\x00\x00\x07\x00\x00\x00\x00\x00\x00\x00\x08\x00\x00\x00\x00\x00\x00\x00\t\x00\x00\x00\x00\x00\x00\x00\n\x00\x00\x00\x00\x00\x00\x00\x0b\x00\x00\x00\x00\x00\x00\x00\x0c\x00\x00\x00\x00\x00\x00\x00\r\x00\x00\x00\x00\x00\x00\x00\x0e\x00\x00\x00\x00\x00\x00\x00\x0f\x00\x00\x00\x00\x00\x00\x00\x10\x00\x00\x00\x00\x00\x00\x00\x11\x00\x00\x00\x00\x00\x00\x00\x12\x00\x00\x00\x00\x00\x00\x00\x13\x00\x00\x00\x00\x00\x00\x00\x14\x00\x00\x00\x00\x00\x00\x00'
p1082
tp1083
bsg53
Nstp1084
Rp1085
a(lp1086
g23
(g24
(I0
tp1087
g26
tp1088
Rp1089
(I1
(I15
I21
tp1090
g33
I01
(lp1091
I1372
aI1361
aI958
aI403
aI123
aI11
aI1
aI0
aI0
aI0
aI0
aI0
aI0
aI0
aI0
aI0
aI0
aI0
aI0
aI0
aI0
aI60
aI55
aI21
aI5
aI0
aI0
aI0
aI0
aI0
aI0
aI0
aI0
aI0
aI0
aI0
aI0
aI0
aI0
aI0
aI0
aI0
aI1
aI6
aI40
aI56
aI61
aI61
aI61
aI61
aI61
aI61
aI61
aI61
aI61
aI61
aI61
aI61
aI61
aI61
aI61
aI61
aI61
aI747
aI758
aI1161
aI1716
aI1996
aI2108
aI2118
aI2119
aI2119
aI2119
aI2119
aI2119
aI2119
aI2119
aI2119
aI2119
aI2119
aI2119
aI2119
aI2119
aI2119
aI2119
aI2119
aI2119
aI2119
aI2119
aI2119
aI2119
aI2119
aI2119
aI2119
aI2119
aI2119
aI2119
aI2119
aI2119
aI2119
aI2119
aI2119
aI2119
aI2119
aI2119
aI61
aI61
aI61
aI61
aI61
aI61
aI61
aI61
aI61
aI61
aI61
aI61
aI61
aI61
aI61
aI61
aI61
aI61
aI61
aI61
aI61
aF0.6474752241623407
aF0.6422840962718264
aF0.45210004719207175
aF0.1901840490797546
aF0.05804624823029731
aF0.005191127890514393
aF0.00047192071731949034
aF0.0
aF0.0
aF0.0
aF0.0
aF0.0
aF0.0
aF0.0
aF0.0
aF0.0
aF0.0
aF0.0
aF0.0
aF0.0
aF0.0
aF0.9836065573770492
aF0.9016393442622951
aF0.3442622950819672
aF0.08196721311475409
aF0.0
aF0.0
aF0.0
aF0.0
aF0.0
aF0.0
aF0.0
aF0.0
aF0.0
aF0.0
aF0.0
aF0.0
aF0.0
aF0.0
aF0.0
aF0.0
aF0.0
aI61
aI61
aI61
aI61
aI61
aI61
aI61
aI61
aI61
aI61
aI61
aI61
aI61
aI61
aI61
aI61
aI61
aI61
aI61
aI61
aI61
aI2119
aI2119
aI2119
aI2119
aI2119
aI2119
aI2119
aI2119
aI2119
aI2119
aI2119
aI2119
aI2119
aI2119
aI2119
aI2119
aI2119
aI2119
aI2119
aI2119
aI2119
aF0.01639344262295082
aF0.09836065573770492
aF0.6557377049180327
aF0.9180327868852459
aF1.0
aF1.0
aF1.0
aF1.0
aF1.0
aF1.0
aF1.0
aF1.0
aF1.0
aF1.0
aF1.0
aF1.0
aF1.0
aF1.0
aF1.0
aF1.0
aF1.0
aF0.3525247758376593
aF0.3577159037281737
aF0.5478999528079282
aF0.8098159509202454
aF0.9419537517697026
aF0.9948088721094857
aF0.9995280792826805
aF1.0
aF1.0
aF1.0
aF1.0
aF1.0
aF1.0
aF1.0
aF1.0
aF1.0
aF1.0
aF1.0
aF1.0
aF1.0
aF1.0
aF0.9581005586592178
aF0.9611581920903954
aF0.9785495403472931
aF0.9877450980392157
aF1.0
aF1.0
aF1.0
aI1
aI1
aI1
aI1
aI1
aI1
aI1
aI1
aI1
aI1
aI1
aI1
aI1
aI1
aF0.6474752241623407
aF0.6422840962718264
aF0.45210004719207175
aF0.1901840490797546
aF0.05804624823029731
aF0.005191127890514393
aF0.00047192071731949034
aF0.0
aF0.0
aF0.0
aF0.0
aF0.0
aF0.0
aF0.0
aF0.0
aF0.0
aF0.0
aF0.0
aF0.0
aF0.0
aF0.0
ag77
(g80
S'\x00\x00\x00\x00\x00\x00\x00\x00'
p1092
tp1093
Rp1094
ag77
(g80
S'\x9a\x99\x99\x99\x99\x99\xa9?'
p1095
tp1096
Rp1097
ag77
(g80
S'\x9a\x99\x99\x99\x99\x99\xb9?'
p1098
tp1099
Rp1100
ag77
(g80
S'433333\xc3?'
p1101
tp1102
Rp1103
ag77
(g80
S'\x9a\x99\x99\x99\x99\x99\xc9?'
p1104
tp1105
Rp1106
ag77
(g80
S'\x00\x00\x00\x00\x00\x00\xd0?'
p1107
tp1108
Rp1109
ag77
(g80
S'433333\xd3?'
p1110
tp1111
Rp1112
ag77
(g80
S'gfffff\xd6?'
p1113
tp1114
Rp1115
ag77
(g80
S'\x9a\x99\x99\x99\x99\x99\xd9?'
p1116
tp1117
Rp1118
ag77
(g80
S'\xcd\xcc\xcc\xcc\xcc\xcc\xdc?'
p1119
tp1120
Rp1121
ag77
(g80
S'\x00\x00\x00\x00\x00\x00\xe0?'
p1122
tp1123
Rp1124
ag77
(g80
S'\x9a\x99\x99\x99\x99\x99\xe1?'
p1125
tp1126
Rp1127
ag77
(g80
S'433333\xe3?'
p1128
tp1129
Rp1130
ag77
(g80
S'\xcd\xcc\xcc\xcc\xcc\xcc\xe4?'
p1131
tp1132
Rp1133
ag77
(g80
S'gfffff\xe6?'
p1134
tp1135
Rp1136
ag77
(g80
S'\x00\x00\x00\x00\x00\x00\xe8?'
p1137
tp1138
Rp1139
ag77
(g80
S'\x9a\x99\x99\x99\x99\x99\xe9?'
p1140
tp1141
Rp1142
ag77
(g80
S'433333\xeb?'
p1143
tp1144
Rp1145
ag77
(g80
S'\xcd\xcc\xcc\xcc\xcc\xcc\xec?'
p1146
tp1147
Rp1148
ag77
(g80
S'gfffff\xee?'
p1149
tp1150
Rp1151
ag77
(g80
S'\x00\x00\x00\x00\x00\x00\xf0?'
p1152
tp1153
Rp1154
atp1155
ba(lp1156
g19
(g20
(dp1157
g22
g23
(g24
(I0
tp1158
g26
tp1159
Rp1160
(I1
(I15
tp1161
g33
I00
(lp1162
g37
ag38
ag39
ag40
ag41
ag42
ag43
ag44
ag45
ag46
ag47
ag48
ag49
ag50
ag51
atp1163
bsg53
Nstp1164
Rp1165
a(dp1166
g158
(dp1167
g160
g1067
sg161
(lp1168
(dp1169
g164
g165
(I0
I15
I1
tp1170
Rp1171
sg168
g1089
sasstp1172
bsbsI75
g4
(g5
g6
Ntp1173
Rp1174
(dp1175
g10
g11
sg12
g13
sg14
g4
(g15
g6
Ntp1176
Rp1177
((lp1178
g19
(g20
(dp1179
g22
g23
(g24
(I0
tp1180
g26
tp1181
Rp1182
(I1
(I15
tp1183
g33
I00
(lp1184
g37
ag38
ag39
ag40
ag41
ag42
ag43
ag44
ag45
ag46
ag47
ag48
ag49
ag50
ag51
atp1185
bsg53
Nstp1186
Rp1187
ag19
(g56
(dp1188
g22
g23
(g24
(I0
tp1189
g26
tp1190
Rp1191
(I1
(I21
tp1192
g64
I00
S'\x00\x00\x00\x00\x00\x00\x00\x00\x01\x00\x00\x00\x00\x00\x00\x00\x02\x00\x00\x00\x00\x00\x00\x00\x03\x00\x00\x00\x00\x00\x00\x00\x04\x00\x00\x00\x00\x00\x00\x00\x05\x00\x00\x00\x00\x00\x00\x00\x06\x00\x00\x00\x00\x00\x00\x00\x07\x00\x00\x00\x00\x00\x00\x00\x08\x00\x00\x00\x00\x00\x00\x00\t\x00\x00\x00\x00\x00\x00\x00\n\x00\x00\x00\x00\x00\x00\x00\x0b\x00\x00\x00\x00\x00\x00\x00\x0c\x00\x00\x00\x00\x00\x00\x00\r\x00\x00\x00\x00\x00\x00\x00\x0e\x00\x00\x00\x00\x00\x00\x00\x0f\x00\x00\x00\x00\x00\x00\x00\x10\x00\x00\x00\x00\x00\x00\x00\x11\x00\x00\x00\x00\x00\x00\x00\x12\x00\x00\x00\x00\x00\x00\x00\x13\x00\x00\x00\x00\x00\x00\x00\x14\x00\x00\x00\x00\x00\x00\x00'
p1193
tp1194
bsg53
Nstp1195
Rp1196
a(lp1197
g23
(g24
(I0
tp1198
g26
tp1199
Rp1200
(I1
(I15
I21
tp1201
g33
I01
(lp1202
I1485
aI1471
aI995
aI407
aI123
aI11
aI1
aI0
aI0
aI0
aI0
aI0
aI0
aI0
aI0
aI0
aI0
aI0
aI0
aI0
aI0
aI60
aI55
aI21
aI5
aI0
aI0
aI0
aI0
aI0
aI0
aI0
aI0
aI0
aI0
aI0
aI0
aI0
aI0
aI0
aI0
aI0
aI1
aI6
aI40
aI56
aI61
aI61
aI61
aI61
aI61
aI61
aI61
aI61
aI61
aI61
aI61
aI61
aI61
aI61
aI61
aI61
aI61
aI634
aI648
aI1124
aI1712
aI1996
aI2108
aI2118
aI2119
aI2119
aI2119
aI2119
aI2119
aI2119
aI2119
aI2119
aI2119
aI2119
aI2119
aI2119
aI2119
aI2119
aI2119
aI2119
aI2119
aI2119
aI2119
aI2119
aI2119
aI2119
aI2119
aI2119
aI2119
aI2119
aI2119
aI2119
aI2119
aI2119
aI2119
aI2119
aI2119
aI2119
aI2119
aI61
aI61
aI61
aI61
aI61
aI61
aI61
aI61
aI61
aI61
aI61
aI61
aI61
aI61
aI61
aI61
aI61
aI61
aI61
aI61
aI61
aF0.7008022652194431
aF0.6941953751769703
aF0.4695611137328929
aF0.19207173194903257
aF0.05804624823029731
aF0.005191127890514393
aF0.00047192071731949034
aF0.0
aF0.0
aF0.0
aF0.0
aF0.0
aF0.0
aF0.0
aF0.0
aF0.0
aF0.0
aF0.0
aF0.0
aF0.0
aF0.0
aF0.9836065573770492
aF0.9016393442622951
aF0.3442622950819672
aF0.08196721311475409
aF0.0
aF0.0
aF0.0
aF0.0
aF0.0
aF0.0
aF0.0
aF0.0
aF0.0
aF0.0
aF0.0
aF0.0
aF0.0
aF0.0
aF0.0
aF0.0
aF0.0
aI61
aI61
aI61
aI61
aI61
aI61
aI61
aI61
aI61
aI61
aI61
aI61
aI61
aI61
aI61
aI61
aI61
aI61
aI61
aI61
aI61
aI2119
aI2119
aI2119
aI2119
aI2119
aI2119
aI2119
aI2119
aI2119
aI2119
aI2119
aI2119
aI2119
aI2119
aI2119
aI2119
aI2119
aI2119
aI2119
aI2119
aI2119
aF0.01639344262295082
aF0.09836065573770492
aF0.6557377049180327
aF0.9180327868852459
aF1.0
aF1.0
aF1.0
aF1.0
aF1.0
aF1.0
aF1.0
aF1.0
aF1.0
aF1.0
aF1.0
aF1.0
aF1.0
aF1.0
aF1.0
aF1.0
aF1.0
aF0.2991977347805569
aF0.3058046248230297
aF0.5304388862671071
aF0.8079282680509674
aF0.9419537517697026
aF0.9948088721094857
aF0.9995280792826805
aF1.0
aF1.0
aF1.0
aF1.0
aF1.0
aF1.0
aF1.0
aF1.0
aF1.0
aF1.0
aF1.0
aF1.0
aF1.0
aF1.0
aF0.9611650485436893
aF0.9639580602883355
aF0.9793307086614174
aF0.9878640776699029
aF1.0
aF1.0
aF1.0
aI1
aI1
aI1
aI1
aI1
aI1
aI1
aI1
aI1
aI1
aI1
aI1
aI1
aI1
aF0.7008022652194431
aF0.6941953751769703
aF0.4695611137328929
aF0.19207173194903257
aF0.05804624823029731
aF0.005191127890514393
aF0.00047192071731949034
aF0.0
aF0.0
aF0.0
aF0.0
aF0.0
aF0.0
aF0.0
aF0.0
aF0.0
aF0.0
aF0.0
aF0.0
aF0.0
aF0.0
ag77
(g80
S'\x00\x00\x00\x00\x00\x00\x00\x00'
p1203
tp1204
Rp1205
ag77
(g80
S'\x9a\x99\x99\x99\x99\x99\xa9?'
p1206
tp1207
Rp1208
ag77
(g80
S'\x9a\x99\x99\x99\x99\x99\xb9?'
p1209
tp1210
Rp1211
ag77
(g80
S'433333\xc3?'
p1212
tp1213
Rp1214
ag77
(g80
S'\x9a\x99\x99\x99\x99\x99\xc9?'
p1215
tp1216
Rp1217
ag77
(g80
S'\x00\x00\x00\x00\x00\x00\xd0?'
p1218
tp1219
Rp1220
ag77
(g80
S'433333\xd3?'
p1221
tp1222
Rp1223
ag77
(g80
S'gfffff\xd6?'
p1224
tp1225
Rp1226
ag77
(g80
S'\x9a\x99\x99\x99\x99\x99\xd9?'
p1227
tp1228
Rp1229
ag77
(g80
S'\xcd\xcc\xcc\xcc\xcc\xcc\xdc?'
p1230
tp1231
Rp1232
ag77
(g80
S'\x00\x00\x00\x00\x00\x00\xe0?'
p1233
tp1234
Rp1235
ag77
(g80
S'\x9a\x99\x99\x99\x99\x99\xe1?'
p1236
tp1237
Rp1238
ag77
(g80
S'433333\xe3?'
p1239
tp1240
Rp1241
ag77
(g80
S'\xcd\xcc\xcc\xcc\xcc\xcc\xe4?'
p1242
tp1243
Rp1244
ag77
(g80
S'gfffff\xe6?'
p1245
tp1246
Rp1247
ag77
(g80
S'\x00\x00\x00\x00\x00\x00\xe8?'
p1248
tp1249
Rp1250
ag77
(g80
S'\x9a\x99\x99\x99\x99\x99\xe9?'
p1251
tp1252
Rp1253
ag77
(g80
S'433333\xeb?'
p1254
tp1255
Rp1256
ag77
(g80
S'\xcd\xcc\xcc\xcc\xcc\xcc\xec?'
p1257
tp1258
Rp1259
ag77
(g80
S'gfffff\xee?'
p1260
tp1261
Rp1262
ag77
(g80
S'\x00\x00\x00\x00\x00\x00\xf0?'
p1263
tp1264
Rp1265
atp1266
ba(lp1267
g19
(g20
(dp1268
g22
g23
(g24
(I0
tp1269
g26
tp1270
Rp1271
(I1
(I15
tp1272
g33
I00
(lp1273
g37
ag38
ag39
ag40
ag41
ag42
ag43
ag44
ag45
ag46
ag47
ag48
ag49
ag50
ag51
atp1274
bsg53
Nstp1275
Rp1276
a(dp1277
g158
(dp1278
g160
g1178
sg161
(lp1279
(dp1280
g164
g165
(I0
I15
I1
tp1281
Rp1282
sg168
g1200
sasstp1283
bsbsI100
g4
(g5
g6
Ntp1284
Rp1285
(dp1286
g10
g11
sg12
g13
sg14
g4
(g15
g6
Ntp1287
Rp1288
((lp1289
g19
(g20
(dp1290
g22
g23
(g24
(I0
tp1291
g26
tp1292
Rp1293
(I1
(I15
tp1294
g33
I00
(lp1295
g37
ag38
ag39
ag40
ag41
ag42
ag43
ag44
ag45
ag46
ag47
ag48
ag49
ag50
ag51
atp1296
bsg53
Nstp1297
Rp1298
ag19
(g56
(dp1299
g22
g23
(g24
(I0
tp1300
g26
tp1301
Rp1302
(I1
(I21
tp1303
g64
I00
S'\x00\x00\x00\x00\x00\x00\x00\x00\x01\x00\x00\x00\x00\x00\x00\x00\x02\x00\x00\x00\x00\x00\x00\x00\x03\x00\x00\x00\x00\x00\x00\x00\x04\x00\x00\x00\x00\x00\x00\x00\x05\x00\x00\x00\x00\x00\x00\x00\x06\x00\x00\x00\x00\x00\x00\x00\x07\x00\x00\x00\x00\x00\x00\x00\x08\x00\x00\x00\x00\x00\x00\x00\t\x00\x00\x00\x00\x00\x00\x00\n\x00\x00\x00\x00\x00\x00\x00\x0b\x00\x00\x00\x00\x00\x00\x00\x0c\x00\x00\x00\x00\x00\x00\x00\r\x00\x00\x00\x00\x00\x00\x00\x0e\x00\x00\x00\x00\x00\x00\x00\x0f\x00\x00\x00\x00\x00\x00\x00\x10\x00\x00\x00\x00\x00\x00\x00\x11\x00\x00\x00\x00\x00\x00\x00\x12\x00\x00\x00\x00\x00\x00\x00\x13\x00\x00\x00\x00\x00\x00\x00\x14\x00\x00\x00\x00\x00\x00\x00'
p1304
tp1305
bsg53
Nstp1306
Rp1307
a(lp1308
g23
(g24
(I0
tp1309
g26
tp1310
Rp1311
(I1
(I15
I21
tp1312
g33
I01
(lp1313
I1545
aI1528
aI1014
aI408
aI123
aI11
aI1
aI0
aI0
aI0
aI0
aI0
aI0
aI0
aI0
aI0
aI0
aI0
aI0
aI0
aI0
aI60
aI55
aI21
aI5
aI0
aI0
aI0
aI0
aI0
aI0
aI0
aI0
aI0
aI0
aI0
aI0
aI0
aI0
aI0
aI0
aI0
aI1
aI6
aI40
aI56
aI61
aI61
aI61
aI61
aI61
aI61
aI61
aI61
aI61
aI61
aI61
aI61
aI61
aI61
aI61
aI61
aI61
aI574
aI591
aI1105
aI1711
aI1996
aI2108
aI2118
aI2119
aI2119
aI2119
aI2119
aI2119
aI2119
aI2119
aI2119
aI2119
aI2119
aI2119
aI2119
aI2119
aI2119
aI2119
aI2119
aI2119
aI2119
aI2119
aI2119
aI2119
aI2119
aI2119
aI2119
aI2119
aI2119
aI2119
aI2119
aI2119
aI2119
aI2119
aI2119
aI2119
aI2119
aI2119
aI61
aI61
aI61
aI61
aI61
aI61
aI61
aI61
aI61
aI61
aI61
aI61
aI61
aI61
aI61
aI61
aI61
aI61
aI61
aI61
aI61
aF0.7291175082586125
aF0.7210948560641812
aF0.4785276073619632
aF0.19254365266635207
aF0.05804624823029731
aF0.005191127890514393
aF0.00047192071731949034
aF0.0
aF0.0
aF0.0
aF0.0
aF0.0
aF0.0
aF0.0
aF0.0
aF0.0
aF0.0
aF0.0
aF0.0
aF0.0
aF0.0
aF0.9836065573770492
aF0.9016393442622951
aF0.3442622950819672
aF0.08196721311475409
aF0.0
aF0.0
aF0.0
aF0.0
aF0.0
aF0.0
aF0.0
aF0.0
aF0.0
aF0.0
aF0.0
aF0.0
aF0.0
aF0.0
aF0.0
aF0.0
aF0.0
aI61
aI61
aI61
aI61
aI61
aI61
aI61
aI61
aI61
aI61
aI61
aI61
aI61
aI61
aI61
aI61
aI61
aI61
aI61
aI61
aI61
aI2119
aI2119
aI2119
aI2119
aI2119
aI2119
aI2119
aI2119
aI2119
aI2119
aI2119
aI2119
aI2119
aI2119
aI2119
aI2119
aI2119
aI2119
aI2119
aI2119
aI2119
aF0.01639344262295082
aF0.09836065573770492
aF0.6557377049180327
aF0.9180327868852459
aF1.0
aF1.0
aF1.0
aF1.0
aF1.0
aF1.0
aF1.0
aF1.0
aF1.0
aF1.0
aF1.0
aF1.0
aF1.0
aF1.0
aF1.0
aF1.0
aF1.0
aF0.27088249174138745
aF0.2789051439358188
aF0.5214723926380368
aF0.8074563473336479
aF0.9419537517697026
aF0.9948088721094857
aF0.9995280792826805
aF1.0
aF1.0
aF1.0
aF1.0
aF1.0
aF1.0
aF1.0
aF1.0
aF1.0
aF1.0
aF1.0
aF1.0
aF1.0
aF1.0
aF0.9626168224299065
aF0.965255843335439
aF0.9797101449275363
aF0.9878934624697336
aF1.0
aF1.0
aF1.0
aI1
aI1
aI1
aI1
aI1
aI1
aI1
aI1
aI1
aI1
aI1
aI1
aI1
aI1
aF0.7291175082586125
aF0.7210948560641812
aF0.4785276073619632
aF0.19254365266635207
aF0.05804624823029731
aF0.005191127890514393
aF0.00047192071731949034
aF0.0
aF0.0
aF0.0
aF0.0
aF0.0
aF0.0
aF0.0
aF0.0
aF0.0
aF0.0
aF0.0
aF0.0
aF0.0
aF0.0
ag77
(g80
S'\x00\x00\x00\x00\x00\x00\x00\x00'
p1314
tp1315
Rp1316
ag77
(g80
S'\x9a\x99\x99\x99\x99\x99\xa9?'
p1317
tp1318
Rp1319
ag77
(g80
S'\x9a\x99\x99\x99\x99\x99\xb9?'
p1320
tp1321
Rp1322
ag77
(g80
S'433333\xc3?'
p1323
tp1324
Rp1325
ag77
(g80
S'\x9a\x99\x99\x99\x99\x99\xc9?'
p1326
tp1327
Rp1328
ag77
(g80
S'\x00\x00\x00\x00\x00\x00\xd0?'
p1329
tp1330
Rp1331
ag77
(g80
S'433333\xd3?'
p1332
tp1333
Rp1334
ag77
(g80
S'gfffff\xd6?'
p1335
tp1336
Rp1337
ag77
(g80
S'\x9a\x99\x99\x99\x99\x99\xd9?'
p1338
tp1339
Rp1340
ag77
(g80
S'\xcd\xcc\xcc\xcc\xcc\xcc\xdc?'
p1341
tp1342
Rp1343
ag77
(g80
S'\x00\x00\x00\x00\x00\x00\xe0?'
p1344
tp1345
Rp1346
ag77
(g80
S'\x9a\x99\x99\x99\x99\x99\xe1?'
p1347
tp1348
Rp1349
ag77
(g80
S'433333\xe3?'
p1350
tp1351
Rp1352
ag77
(g80
S'\xcd\xcc\xcc\xcc\xcc\xcc\xe4?'
p1353
tp1354
Rp1355
ag77
(g80
S'gfffff\xe6?'
p1356
tp1357
Rp1358
ag77
(g80
S'\x00\x00\x00\x00\x00\x00\xe8?'
p1359
tp1360
Rp1361
ag77
(g80
S'\x9a\x99\x99\x99\x99\x99\xe9?'
p1362
tp1363
Rp1364
ag77
(g80
S'433333\xeb?'
p1365
tp1366
Rp1367
ag77
(g80
S'\xcd\xcc\xcc\xcc\xcc\xcc\xec?'
p1368
tp1369
Rp1370
ag77
(g80
S'gfffff\xee?'
p1371
tp1372
Rp1373
ag77
(g80
S'\x00\x00\x00\x00\x00\x00\xf0?'
p1374
tp1375
Rp1376
atp1377
ba(lp1378
g19
(g20
(dp1379
g22
g23
(g24
(I0
tp1380
g26
tp1381
Rp1382
(I1
(I15
tp1383
g33
I00
(lp1384
g37
ag38
ag39
ag40
ag41
ag42
ag43
ag44
ag45
ag46
ag47
ag48
ag49
ag50
ag51
atp1385
bsg53
Nstp1386
Rp1387
a(dp1388
g158
(dp1389
g160
g1289
sg161
(lp1390
(dp1391
g164
g165
(I0
I15
I1
tp1392
Rp1393
sg168
g1311
sasstp1394
bsbssS'LeftDorsalOrgan'
p1395
(dp1396
I25
g4
(g5
g6
Ntp1397
Rp1398
(dp1399
g10
g11
sg12
g13
sg14
g4
(g15
g6
Ntp1400
Rp1401
((lp1402
g19
(g20
(dp1403
g22
g23
(g24
(I0
tp1404
g26
tp1405
Rp1406
(I1
(I15
tp1407
g33
I00
(lp1408
g37
ag38
ag39
ag40
ag41
ag42
ag43
ag44
ag45
ag46
ag47
ag48
ag49
ag50
ag51
atp1409
bsg53
Nstp1410
Rp1411
ag19
(g56
(dp1412
g22
g23
(g24
(I0
tp1413
g26
tp1414
Rp1415
(I1
(I21
tp1416
g64
I00
S'\x00\x00\x00\x00\x00\x00\x00\x00\x01\x00\x00\x00\x00\x00\x00\x00\x02\x00\x00\x00\x00\x00\x00\x00\x03\x00\x00\x00\x00\x00\x00\x00\x04\x00\x00\x00\x00\x00\x00\x00\x05\x00\x00\x00\x00\x00\x00\x00\x06\x00\x00\x00\x00\x00\x00\x00\x07\x00\x00\x00\x00\x00\x00\x00\x08\x00\x00\x00\x00\x00\x00\x00\t\x00\x00\x00\x00\x00\x00\x00\n\x00\x00\x00\x00\x00\x00\x00\x0b\x00\x00\x00\x00\x00\x00\x00\x0c\x00\x00\x00\x00\x00\x00\x00\r\x00\x00\x00\x00\x00\x00\x00\x0e\x00\x00\x00\x00\x00\x00\x00\x0f\x00\x00\x00\x00\x00\x00\x00\x10\x00\x00\x00\x00\x00\x00\x00\x11\x00\x00\x00\x00\x00\x00\x00\x12\x00\x00\x00\x00\x00\x00\x00\x13\x00\x00\x00\x00\x00\x00\x00\x14\x00\x00\x00\x00\x00\x00\x00'
p1417
tp1418
bsg53
Nstp1419
Rp1420
a(lp1421
g23
(g24
(I0
tp1422
g26
tp1423
Rp1424
(I1
(I15
I21
tp1425
g33
I01
(lp1426
I750
aI704
aI462
aI180
aI51
aI5
aI0
aI0
aI0
aI0
aI0
aI0
aI0
aI0
aI0
aI0
aI0
aI0
aI0
aI0
aI0
aI529
aI326
aI53
aI10
aI2
aI0
aI0
aI0
aI0
aI0
aI0
aI0
aI0
aI0
aI0
aI0
aI0
aI0
aI0
aI0
aI0
aI1
aI204
aI477
aI520
aI528
aI530
aI530
aI530
aI530
aI530
aI530
aI530
aI530
aI530
aI530
aI530
aI530
aI530
aI530
aI530
aI530
aI900
aI946
aI1188
aI1470
aI1599
aI1645
aI1650
aI1650
aI1650
aI1650
aI1650
aI1650
aI1650
aI1650
aI1650
aI1650
aI1650
aI1650
aI1650
aI1650
aI1650
aI1650
aI1650
aI1650
aI1650
aI1650
aI1650
aI1650
aI1650
aI1650
aI1650
aI1650
aI1650
aI1650
aI1650
aI1650
aI1650
aI1650
aI1650
aI1650
aI1650
aI1650
aI530
aI530
aI530
aI530
aI530
aI530
aI530
aI530
aI530
aI530
aI530
aI530
aI530
aI530
aI530
aI530
aI530
aI530
aI530
aI530
aI530
aF0.45454545454545453
aF0.4266666666666667
aF0.28
aF0.10909090909090909
aF0.03090909090909091
aF0.0030303030303030303
aF0.0
aF0.0
aF0.0
aF0.0
aF0.0
aF0.0
aF0.0
aF0.0
aF0.0
aF0.0
aF0.0
aF0.0
aF0.0
aF0.0
aF0.0
aF0.9981132075471698
aF0.6150943396226415
aF0.1
aF0.018867924528301886
aF0.0037735849056603774
aF0.0
aF0.0
aF0.0
aF0.0
aF0.0
aF0.0
aF0.0
aF0.0
aF0.0
aF0.0
aF0.0
aF0.0
aF0.0
aF0.0
aF0.0
aF0.0
aI530
aI530
aI530
aI530
aI530
aI530
aI530
aI530
aI530
aI530
aI530
aI530
aI530
aI530
aI530
aI530
aI530
aI530
aI530
aI530
aI530
aI1650
aI1650
aI1650
aI1650
aI1650
aI1650
aI1650
aI1650
aI1650
aI1650
aI1650
aI1650
aI1650
aI1650
aI1650
aI1650
aI1650
aI1650
aI1650
aI1650
aI1650
aF0.0018867924528301887
aF0.3849056603773585
aF0.9
aF0.9811320754716981
aF0.9962264150943396
aF1.0
aF1.0
aF1.0
aF1.0
aF1.0
aF1.0
aF1.0
aF1.0
aF1.0
aF1.0
aF1.0
aF1.0
aF1.0
aF1.0
aF1.0
aF1.0
aF0.5454545454545454
aF0.5733333333333334
aF0.72
aF0.8909090909090909
aF0.9690909090909091
aF0.996969696969697
aF1.0
aF1.0
aF1.0
aF1.0
aF1.0
aF1.0
aF1.0
aF1.0
aF1.0
aF1.0
aF1.0
aF1.0
aF1.0
aF1.0
aF1.0
aF0.5863956215793589
aF0.683495145631068
aF0.8970873786407767
aF0.9473684210526315
aF0.9622641509433962
aF1.0
aI1
aI1
aI1
aI1
aI1
aI1
aI1
aI1
aI1
aI1
aI1
aI1
aI1
aI1
aI1
aF0.45454545454545453
aF0.4266666666666667
aF0.28
aF0.10909090909090909
aF0.03090909090909091
aF0.0030303030303030303
aF0.0
aF0.0
aF0.0
aF0.0
aF0.0
aF0.0
aF0.0
aF0.0
aF0.0
aF0.0
aF0.0
aF0.0
aF0.0
aF0.0
aF0.0
ag77
(g80
S'\x00\x00\x00\x00\x00\x00\x00\x00'
p1427
tp1428
Rp1429
ag77
(g80
S'\x9a\x99\x99\x99\x99\x99\xa9?'
p1430
tp1431
Rp1432
ag77
(g80
S'\x9a\x99\x99\x99\x99\x99\xb9?'
p1433
tp1434
Rp1435
ag77
(g80
S'433333\xc3?'
p1436
tp1437
Rp1438
ag77
(g80
S'\x9a\x99\x99\x99\x99\x99\xc9?'
p1439
tp1440
Rp1441
ag77
(g80
S'\x00\x00\x00\x00\x00\x00\xd0?'
p1442
tp1443
Rp1444
ag77
(g80
S'433333\xd3?'
p1445
tp1446
Rp1447
ag77
(g80
S'gfffff\xd6?'
p1448
tp1449
Rp1450
ag77
(g80
S'\x9a\x99\x99\x99\x99\x99\xd9?'
p1451
tp1452
Rp1453
ag77
(g80
S'\xcd\xcc\xcc\xcc\xcc\xcc\xdc?'
p1454
tp1455
Rp1456
ag77
(g80
S'\x00\x00\x00\x00\x00\x00\xe0?'
p1457
tp1458
Rp1459
ag77
(g80
S'\x9a\x99\x99\x99\x99\x99\xe1?'
p1460
tp1461
Rp1462
ag77
(g80
S'433333\xe3?'
p1463
tp1464
Rp1465
ag77
(g80
S'\xcd\xcc\xcc\xcc\xcc\xcc\xe4?'
p1466
tp1467
Rp1468
ag77
(g80
S'gfffff\xe6?'
p1469
tp1470
Rp1471
ag77
(g80
S'\x00\x00\x00\x00\x00\x00\xe8?'
p1472
tp1473
Rp1474
ag77
(g80
S'\x9a\x99\x99\x99\x99\x99\xe9?'
p1475
tp1476
Rp1477
ag77
(g80
S'433333\xeb?'
p1478
tp1479
Rp1480
ag77
(g80
S'\xcd\xcc\xcc\xcc\xcc\xcc\xec?'
p1481
tp1482
Rp1483
ag77
(g80
S'gfffff\xee?'
p1484
tp1485
Rp1486
ag77
(g80
S'\x00\x00\x00\x00\x00\x00\xf0?'
p1487
tp1488
Rp1489
atp1490
ba(lp1491
g19
(g20
(dp1492
g22
g23
(g24
(I0
tp1493
g26
tp1494
Rp1495
(I1
(I15
tp1496
g33
I00
(lp1497
g37
ag38
ag39
ag40
ag41
ag42
ag43
ag44
ag45
ag46
ag47
ag48
ag49
ag50
ag51
atp1498
bsg53
Nstp1499
Rp1500
a(dp1501
g158
(dp1502
g160
g1402
sg161
(lp1503
(dp1504
g164
g165
(I0
I15
I1
tp1505
Rp1506
sg168
g1424
sasstp1507
bsbsI50
g4
(g5
g6
Ntp1508
Rp1509
(dp1510
g10
g11
sg12
g13
sg14
g4
(g15
g6
Ntp1511
Rp1512
((lp1513
g19
(g20
(dp1514
g22
g23
(g24
(I0
tp1515
g26
tp1516
Rp1517
(I1
(I15
tp1518
g33
I00
(lp1519
g37
ag38
ag39
ag40
ag41
ag42
ag43
ag44
ag45
ag46
ag47
ag48
ag49
ag50
ag51
atp1520
bsg53
Nstp1521
Rp1522
ag19
(g56
(dp1523
g22
g23
(g24
(I0
tp1524
g26
tp1525
Rp1526
(I1
(I21
tp1527
g64
I00
S'\x00\x00\x00\x00\x00\x00\x00\x00\x01\x00\x00\x00\x00\x00\x00\x00\x02\x00\x00\x00\x00\x00\x00\x00\x03\x00\x00\x00\x00\x00\x00\x00\x04\x00\x00\x00\x00\x00\x00\x00\x05\x00\x00\x00\x00\x00\x00\x00\x06\x00\x00\x00\x00\x00\x00\x00\x07\x00\x00\x00\x00\x00\x00\x00\x08\x00\x00\x00\x00\x00\x00\x00\t\x00\x00\x00\x00\x00\x00\x00\n\x00\x00\x00\x00\x00\x00\x00\x0b\x00\x00\x00\x00\x00\x00\x00\x0c\x00\x00\x00\x00\x00\x00\x00\r\x00\x00\x00\x00\x00\x00\x00\x0e\x00\x00\x00\x00\x00\x00\x00\x0f\x00\x00\x00\x00\x00\x00\x00\x10\x00\x00\x00\x00\x00\x00\x00\x11\x00\x00\x00\x00\x00\x00\x00\x12\x00\x00\x00\x00\x00\x00\x00\x13\x00\x00\x00\x00\x00\x00\x00\x14\x00\x00\x00\x00\x00\x00\x00'
p1528
tp1529
bsg53
Nstp1530
Rp1531
a(lp1532
g23
(g24
(I0
tp1533
g26
tp1534
Rp1535
(I1
(I15
I21
tp1536
g33
I01
(lp1537
I1205
aI1103
aI624
aI227
aI68
aI7
aI0
aI0
aI0
aI0
aI0
aI0
aI0
aI0
aI0
aI0
aI0
aI0
aI0
aI0
aI0
aI529
aI326
aI53
aI10
aI2
aI0
aI0
aI0
aI0
aI0
aI0
aI0
aI0
aI0
aI0
aI0
aI0
aI0
aI0
aI0
aI0
aI1
aI204
aI477
aI520
aI528
aI530
aI530
aI530
aI530
aI530
aI530
aI530
aI530
aI530
aI530
aI530
aI530
aI530
aI530
aI530
aI530
aI445
aI547
aI1026
aI1423
aI1582
aI1643
aI1650
aI1650
aI1650
aI1650
aI1650
aI1650
aI1650
aI1650
aI1650
aI1650
aI1650
aI1650
aI1650
aI1650
aI1650
aI1650
aI1650
aI1650
aI1650
aI1650
aI1650
aI1650
aI1650
aI1650
aI1650
aI1650
aI1650
aI1650
aI1650
aI1650
aI1650
aI1650
aI1650
aI1650
aI1650
aI1650
aI530
aI530
aI530
aI530
aI530
aI530
aI530
aI530
aI530
aI530
aI530
aI530
aI530
aI530
aI530
aI530
aI530
aI530
aI530
aI530
aI530
aF0.7303030303030303
aF0.6684848484848485
aF0.3781818181818182
aF0.13757575757575757
aF0.041212121212121214
aF0.004242424242424243
aF0.0
aF0.0
aF0.0
aF0.0
aF0.0
aF0.0
aF0.0
aF0.0
aF0.0
aF0.0
aF0.0
aF0.0
aF0.0
aF0.0
aF0.0
aF0.9981132075471698
aF0.6150943396226415
aF0.1
aF0.018867924528301886
aF0.0037735849056603774
aF0.0
aF0.0
aF0.0
aF0.0
aF0.0
aF0.0
aF0.0
aF0.0
aF0.0
aF0.0
aF0.0
aF0.0
aF0.0
aF0.0
aF0.0
aF0.0
aI530
aI530
aI530
aI530
aI530
aI530
aI530
aI530
aI530
aI530
aI530
aI530
aI530
aI530
aI530
aI530
aI530
aI530
aI530
aI530
aI530
aI1650
aI1650
aI1650
aI1650
aI1650
aI1650
aI1650
aI1650
aI1650
aI1650
aI1650
aI1650
aI1650
aI1650
aI1650
aI1650
aI1650
aI1650
aI1650
aI1650
aI1650
aF0.0018867924528301887
aF0.3849056603773585
aF0.9
aF0.9811320754716981
aF0.9962264150943396
aF1.0
aF1.0
aF1.0
aF1.0
aF1.0
aF1.0
aF1.0
aF1.0
aF1.0
aF1.0
aF1.0
aF1.0
aF1.0
aF1.0
aF1.0
aF1.0
aF0.2696969696969697
aF0.33151515151515154
aF0.6218181818181818
aF0.8624242424242424
aF0.9587878787878787
aF0.9957575757575757
aF1.0
aF1.0
aF1.0
aF1.0
aF1.0
aF1.0
aF1.0
aF1.0
aF1.0
aF1.0
aF1.0
aF1.0
aF1.0
aF1.0
aF1.0
aF0.6949250288350635
aF0.7718684394681595
aF0.9217134416543574
aF0.9578059071729957
aF0.9714285714285714
aF1.0
aI1
aI1
aI1
aI1
aI1
aI1
aI1
aI1
aI1
aI1
aI1
aI1
aI1
aI1
aI1
aF0.7303030303030303
aF0.6684848484848485
aF0.3781818181818182
aF0.13757575757575757
aF0.041212121212121214
aF0.004242424242424243
aF0.0
aF0.0
aF0.0
aF0.0
aF0.0
aF0.0
aF0.0
aF0.0
aF0.0
aF0.0
aF0.0
aF0.0
aF0.0
aF0.0
aF0.0
ag77
(g80
S'\x00\x00\x00\x00\x00\x00\x00\x00'
p1538
tp1539
Rp1540
ag77
(g80
S'\x9a\x99\x99\x99\x99\x99\xa9?'
p1541
tp1542
Rp1543
ag77
(g80
S'\x9a\x99\x99\x99\x99\x99\xb9?'
p1544
tp1545
Rp1546
ag77
(g80
S'433333\xc3?'
p1547
tp1548
Rp1549
ag77
(g80
S'\x9a\x99\x99\x99\x99\x99\xc9?'
p1550
tp1551
Rp1552
ag77
(g80
S'\x00\x00\x00\x00\x00\x00\xd0?'
p1553
tp1554
Rp1555
ag77
(g80
S'433333\xd3?'
p1556
tp1557
Rp1558
ag77
(g80
S'gfffff\xd6?'
p1559
tp1560
Rp1561
ag77
(g80
S'\x9a\x99\x99\x99\x99\x99\xd9?'
p1562
tp1563
Rp1564
ag77
(g80
S'\xcd\xcc\xcc\xcc\xcc\xcc\xdc?'
p1565
tp1566
Rp1567
ag77
(g80
S'\x00\x00\x00\x00\x00\x00\xe0?'
p1568
tp1569
Rp1570
ag77
(g80
S'\x9a\x99\x99\x99\x99\x99\xe1?'
p1571
tp1572
Rp1573
ag77
(g80
S'433333\xe3?'
p1574
tp1575
Rp1576
ag77
(g80
S'\xcd\xcc\xcc\xcc\xcc\xcc\xe4?'
p1577
tp1578
Rp1579
ag77
(g80
S'gfffff\xe6?'
p1580
tp1581
Rp1582
ag77
(g80
S'\x00\x00\x00\x00\x00\x00\xe8?'
p1583
tp1584
Rp1585
ag77
(g80
S'\x9a\x99\x99\x99\x99\x99\xe9?'
p1586
tp1587
Rp1588
ag77
(g80
S'433333\xeb?'
p1589
tp1590
Rp1591
ag77
(g80
S'\xcd\xcc\xcc\xcc\xcc\xcc\xec?'
p1592
tp1593
Rp1594
ag77
(g80
S'gfffff\xee?'
p1595
tp1596
Rp1597
ag77
(g80
S'\x00\x00\x00\x00\x00\x00\xf0?'
p1598
tp1599
Rp1600
atp1601
ba(lp1602
g19
(g20
(dp1603
g22
g23
(g24
(I0
tp1604
g26
tp1605
Rp1606
(I1
(I15
tp1607
g33
I00
(lp1608
g37
ag38
ag39
ag40
ag41
ag42
ag43
ag44
ag45
ag46
ag47
ag48
ag49
ag50
ag51
atp1609
bsg53
Nstp1610
Rp1611
a(dp1612
g158
(dp1613
g160
g1513
sg161
(lp1614
(dp1615
g164
g165
(I0
I15
I1
tp1616
Rp1617
sg168
g1535
sasstp1618
bsbsI75
g4
(g5
g6
Ntp1619
Rp1620
(dp1621
g10
g11
sg12
g13
sg14
g4
(g15
g6
Ntp1622
Rp1623
((lp1624
g19
(g20
(dp1625
g22
g23
(g24
(I0
tp1626
g26
tp1627
Rp1628
(I1
(I15
tp1629
g33
I00
(lp1630
g37
ag38
ag39
ag40
ag41
ag42
ag43
ag44
ag45
ag46
ag47
ag48
ag49
ag50
ag51
atp1631
bsg53
Nstp1632
Rp1633
ag19
(g56
(dp1634
g22
g23
(g24
(I0
tp1635
g26
tp1636
Rp1637
(I1
(I21
tp1638
g64
I00
S'\x00\x00\x00\x00\x00\x00\x00\x00\x01\x00\x00\x00\x00\x00\x00\x00\x02\x00\x00\x00\x00\x00\x00\x00\x03\x00\x00\x00\x00\x00\x00\x00\x04\x00\x00\x00\x00\x00\x00\x00\x05\x00\x00\x00\x00\x00\x00\x00\x06\x00\x00\x00\x00\x00\x00\x00\x07\x00\x00\x00\x00\x00\x00\x00\x08\x00\x00\x00\x00\x00\x00\x00\t\x00\x00\x00\x00\x00\x00\x00\n\x00\x00\x00\x00\x00\x00\x00\x0b\x00\x00\x00\x00\x00\x00\x00\x0c\x00\x00\x00\x00\x00\x00\x00\r\x00\x00\x00\x00\x00\x00\x00\x0e\x00\x00\x00\x00\x00\x00\x00\x0f\x00\x00\x00\x00\x00\x00\x00\x10\x00\x00\x00\x00\x00\x00\x00\x11\x00\x00\x00\x00\x00\x00\x00\x12\x00\x00\x00\x00\x00\x00\x00\x13\x00\x00\x00\x00\x00\x00\x00\x14\x00\x00\x00\x00\x00\x00\x00'
p1639
tp1640
bsg53
Nstp1641
Rp1642
a(lp1643
g23
(g24
(I0
tp1644
g26
tp1645
Rp1646
(I1
(I15
I21
tp1647
g33
I01
(lp1648
I1321
aI1181
aI647
aI231
aI68
aI7
aI0
aI0
aI0
aI0
aI0
aI0
aI0
aI0
aI0
aI0
aI0
aI0
aI0
aI0
aI0
aI529
aI326
aI53
aI10
aI2
aI0
aI0
aI0
aI0
aI0
aI0
aI0
aI0
aI0
aI0
aI0
aI0
aI0
aI0
aI0
aI0
aI1
aI204
aI477
aI520
aI528
aI530
aI530
aI530
aI530
aI530
aI530
aI530
aI530
aI530
aI530
aI530
aI530
aI530
aI530
aI530
aI530
aI329
aI469
aI1003
aI1419
aI1582
aI1643
aI1650
aI1650
aI1650
aI1650
aI1650
aI1650
aI1650
aI1650
aI1650
aI1650
aI1650
aI1650
aI1650
aI1650
aI1650
aI1650
aI1650
aI1650
aI1650
aI1650
aI1650
aI1650
aI1650
aI1650
aI1650
aI1650
aI1650
aI1650
aI1650
aI1650
aI1650
aI1650
aI1650
aI1650
aI1650
aI1650
aI530
aI530
aI530
aI530
aI530
aI530
aI530
aI530
aI530
aI530
aI530
aI530
aI530
aI530
aI530
aI530
aI530
aI530
aI530
aI530
aI530
aF0.8006060606060607
aF0.7157575757575757
aF0.39212121212121215
aF0.14
aF0.041212121212121214
aF0.004242424242424243
aF0.0
aF0.0
aF0.0
aF0.0
aF0.0
aF0.0
aF0.0
aF0.0
aF0.0
aF0.0
aF0.0
aF0.0
aF0.0
aF0.0
aF0.0
aF0.9981132075471698
aF0.6150943396226415
aF0.1
aF0.018867924528301886
aF0.0037735849056603774
aF0.0
aF0.0
aF0.0
aF0.0
aF0.0
aF0.0
aF0.0
aF0.0
aF0.0
aF0.0
aF0.0
aF0.0
aF0.0
aF0.0
aF0.0
aF0.0
aI530
aI530
aI530
aI530
aI530
aI530
aI530
aI530
aI530
aI530
aI530
aI530
aI530
aI530
aI530
aI530
aI530
aI530
aI530
aI530
aI530
aI1650
aI1650
aI1650
aI1650
aI1650
aI1650
aI1650
aI1650
aI1650
aI1650
aI1650
aI1650
aI1650
aI1650
aI1650
aI1650
aI1650
aI1650
aI1650
aI1650
aI1650
aF0.0018867924528301887
aF0.3849056603773585
aF0.9
aF0.9811320754716981
aF0.9962264150943396
aF1.0
aF1.0
aF1.0
aF1.0
aF1.0
aF1.0
aF1.0
aF1.0
aF1.0
aF1.0
aF1.0
aF1.0
aF1.0
aF1.0
aF1.0
aF1.0
aF0.1993939393939394
aF0.28424242424242424
aF0.6078787878787879
aF0.86
aF0.9587878787878787
aF0.9957575757575757
aF1.0
aF1.0
aF1.0
aF1.0
aF1.0
aF1.0
aF1.0
aF1.0
aF1.0
aF1.0
aF1.0
aF1.0
aF1.0
aF1.0
aF1.0
aF0.7140540540540541
aF0.7836761778367618
aF0.9242857142857143
aF0.9585062240663901
aF0.9714285714285714
aF1.0
aI1
aI1
aI1
aI1
aI1
aI1
aI1
aI1
aI1
aI1
aI1
aI1
aI1
aI1
aI1
aF0.8006060606060607
aF0.7157575757575757
aF0.39212121212121215
aF0.14
aF0.041212121212121214
aF0.004242424242424243
aF0.0
aF0.0
aF0.0
aF0.0
aF0.0
aF0.0
aF0.0
aF0.0
aF0.0
aF0.0
aF0.0
aF0.0
aF0.0
aF0.0
aF0.0
ag77
(g80
S'\x00\x00\x00\x00\x00\x00\x00\x00'
p1649
tp1650
Rp1651
ag77
(g80
S'\x9a\x99\x99\x99\x99\x99\xa9?'
p1652
tp1653
Rp1654
ag77
(g80
S'\x9a\x99\x99\x99\x99\x99\xb9?'
p1655
tp1656
Rp1657
ag77
(g80
S'433333\xc3?'
p1658
tp1659
Rp1660
ag77
(g80
S'\x9a\x99\x99\x99\x99\x99\xc9?'
p1661
tp1662
Rp1663
ag77
(g80
S'\x00\x00\x00\x00\x00\x00\xd0?'
p1664
tp1665
Rp1666
ag77
(g80
S'433333\xd3?'
p1667
tp1668
Rp1669
ag77
(g80
S'gfffff\xd6?'
p1670
tp1671
Rp1672
ag77
(g80
S'\x9a\x99\x99\x99\x99\x99\xd9?'
p1673
tp1674
Rp1675
ag77
(g80
S'\xcd\xcc\xcc\xcc\xcc\xcc\xdc?'
p1676
tp1677
Rp1678
ag77
(g80
S'\x00\x00\x00\x00\x00\x00\xe0?'
p1679
tp1680
Rp1681
ag77
(g80
S'\x9a\x99\x99\x99\x99\x99\xe1?'
p1682
tp1683
Rp1684
ag77
(g80
S'433333\xe3?'
p1685
tp1686
Rp1687
ag77
(g80
S'\xcd\xcc\xcc\xcc\xcc\xcc\xe4?'
p1688
tp1689
Rp1690
ag77
(g80
S'gfffff\xe6?'
p1691
tp1692
Rp1693
ag77
(g80
S'\x00\x00\x00\x00\x00\x00\xe8?'
p1694
tp1695
Rp1696
ag77
(g80
S'\x9a\x99\x99\x99\x99\x99\xe9?'
p1697
tp1698
Rp1699
ag77
(g80
S'433333\xeb?'
p1700
tp1701
Rp1702
ag77
(g80
S'\xcd\xcc\xcc\xcc\xcc\xcc\xec?'
p1703
tp1704
Rp1705
ag77
(g80
S'gfffff\xee?'
p1706
tp1707
Rp1708
ag77
(g80
S'\x00\x00\x00\x00\x00\x00\xf0?'
p1709
tp1710
Rp1711
atp1712
ba(lp1713
g19
(g20
(dp1714
g22
g23
(g24
(I0
tp1715
g26
tp1716
Rp1717
(I1
(I15
tp1718
g33
I00
(lp1719
g37
ag38
ag39
ag40
ag41
ag42
ag43
ag44
ag45
ag46
ag47
ag48
ag49
ag50
ag51
atp1720
bsg53
Nstp1721
Rp1722
a(dp1723
g158
(dp1724
g160
g1624
sg161
(lp1725
(dp1726
g164
g165
(I0
I15
I1
tp1727
Rp1728
sg168
g1646
sasstp1729
bsbsI100
g4
(g5
g6
Ntp1730
Rp1731
(dp1732
g10
g11
sg12
g13
sg14
g4
(g15
g6
Ntp1733
Rp1734
((lp1735
g19
(g20
(dp1736
g22
g23
(g24
(I0
tp1737
g26
tp1738
Rp1739
(I1
(I15
tp1740
g33
I00
(lp1741
g37
ag38
ag39
ag40
ag41
ag42
ag43
ag44
ag45
ag46
ag47
ag48
ag49
ag50
ag51
atp1742
bsg53
Nstp1743
Rp1744
ag19
(g56
(dp1745
g22
g23
(g24
(I0
tp1746
g26
tp1747
Rp1748
(I1
(I21
tp1749
g64
I00
S'\x00\x00\x00\x00\x00\x00\x00\x00\x01\x00\x00\x00\x00\x00\x00\x00\x02\x00\x00\x00\x00\x00\x00\x00\x03\x00\x00\x00\x00\x00\x00\x00\x04\x00\x00\x00\x00\x00\x00\x00\x05\x00\x00\x00\x00\x00\x00\x00\x06\x00\x00\x00\x00\x00\x00\x00\x07\x00\x00\x00\x00\x00\x00\x00\x08\x00\x00\x00\x00\x00\x00\x00\t\x00\x00\x00\x00\x00\x00\x00\n\x00\x00\x00\x00\x00\x00\x00\x0b\x00\x00\x00\x00\x00\x00\x00\x0c\x00\x00\x00\x00\x00\x00\x00\r\x00\x00\x00\x00\x00\x00\x00\x0e\x00\x00\x00\x00\x00\x00\x00\x0f\x00\x00\x00\x00\x00\x00\x00\x10\x00\x00\x00\x00\x00\x00\x00\x11\x00\x00\x00\x00\x00\x00\x00\x12\x00\x00\x00\x00\x00\x00\x00\x13\x00\x00\x00\x00\x00\x00\x00\x14\x00\x00\x00\x00\x00\x00\x00'
p1750
tp1751
bsg53
Nstp1752
Rp1753
a(lp1754
g23
(g24
(I0
tp1755
g26
tp1756
Rp1757
(I1
(I15
I21
tp1758
g33
I01
(lp1759
I1375
aI1217
aI651
aI231
aI68
aI7
aI0
aI0
aI0
aI0
aI0
aI0
aI0
aI0
aI0
aI0
aI0
aI0
aI0
aI0
aI0
aI529
aI326
aI53
aI10
aI2
aI0
aI0
aI0
aI0
aI0
aI0
aI0
aI0
aI0
aI0
aI0
aI0
aI0
aI0
aI0
aI0
aI1
aI204
aI477
aI520
aI528
aI530
aI530
aI530
aI530
aI530
aI530
aI530
aI530
aI530
aI530
aI530
aI530
aI530
aI530
aI530
aI530
aI275
aI433
aI999
aI1419
aI1582
aI1643
aI1650
aI1650
aI1650
aI1650
aI1650
aI1650
aI1650
aI1650
aI1650
aI1650
aI1650
aI1650
aI1650
aI1650
aI1650
aI1650
aI1650
aI1650
aI1650
aI1650
aI1650
aI1650
aI1650
aI1650
aI1650
aI1650
aI1650
aI1650
aI1650
aI1650
aI1650
aI1650
aI1650
aI1650
aI1650
aI1650
aI530
aI530
aI530
aI530
aI530
aI530
aI530
aI530
aI530
aI530
aI530
aI530
aI530
aI530
aI530
aI530
aI530
aI530
aI530
aI530
aI530
aF0.8333333333333334
aF0.7375757575757576
aF0.39454545454545453
aF0.14
aF0.041212121212121214
aF0.004242424242424243
aF0.0
aF0.0
aF0.0
aF0.0
aF0.0
aF0.0
aF0.0
aF0.0
aF0.0
aF0.0
aF0.0
aF0.0
aF0.0
aF0.0
aF0.0
aF0.9981132075471698
aF0.6150943396226415
aF0.1
aF0.018867924528301886
aF0.0037735849056603774
aF0.0
aF0.0
aF0.0
aF0.0
aF0.0
aF0.0
aF0.0
aF0.0
aF0.0
aF0.0
aF0.0
aF0.0
aF0.0
aF0.0
aF0.0
aF0.0
aI530
aI530
aI530
aI530
aI530
aI530
aI530
aI530
aI530
aI530
aI530
aI530
aI530
aI530
aI530
aI530
aI530
aI530
aI530
aI530
aI530
aI1650
aI1650
aI1650
aI1650
aI1650
aI1650
aI1650
aI1650
aI1650
aI1650
aI1650
aI1650
aI1650
aI1650
aI1650
aI1650
aI1650
aI1650
aI1650
aI1650
aI1650
aF0.0018867924528301887
aF0.3849056603773585
aF0.9
aF0.9811320754716981
aF0.9962264150943396
aF1.0
aF1.0
aF1.0
aF1.0
aF1.0
aF1.0
aF1.0
aF1.0
aF1.0
aF1.0
aF1.0
aF1.0
aF1.0
aF1.0
aF1.0
aF1.0
aF0.16666666666666666
aF0.26242424242424245
aF0.6054545454545455
aF0.86
aF0.9587878787878787
aF0.9957575757575757
aF1.0
aF1.0
aF1.0
aF1.0
aF1.0
aF1.0
aF1.0
aF1.0
aF1.0
aF1.0
aF1.0
aF1.0
aF1.0
aF1.0
aF1.0
aF0.7221638655462185
aF0.7887232663642255
aF0.9247159090909091
aF0.9585062240663901
aF0.9714285714285714
aF1.0
aI1
aI1
aI1
aI1
aI1
aI1
aI1
aI1
aI1
aI1
aI1
aI1
aI1
aI1
aI1
aF0.8333333333333334
aF0.7375757575757576
aF0.39454545454545453
aF0.14
aF0.041212121212121214
aF0.004242424242424243
aF0.0
aF0.0
aF0.0
aF0.0
aF0.0
aF0.0
aF0.0
aF0.0
aF0.0
aF0.0
aF0.0
aF0.0
aF0.0
aF0.0
aF0.0
ag77
(g80
S'\x00\x00\x00\x00\x00\x00\x00\x00'
p1760
tp1761
Rp1762
ag77
(g80
S'\x9a\x99\x99\x99\x99\x99\xa9?'
p1763
tp1764
Rp1765
ag77
(g80
S'\x9a\x99\x99\x99\x99\x99\xb9?'
p1766
tp1767
Rp1768
ag77
(g80
S'433333\xc3?'
p1769
tp1770
Rp1771
ag77
(g80
S'\x9a\x99\x99\x99\x99\x99\xc9?'
p1772
tp1773
Rp1774
ag77
(g80
S'\x00\x00\x00\x00\x00\x00\xd0?'
p1775
tp1776
Rp1777
ag77
(g80
S'433333\xd3?'
p1778
tp1779
Rp1780
ag77
(g80
S'gfffff\xd6?'
p1781
tp1782
Rp1783
ag77
(g80
S'\x9a\x99\x99\x99\x99\x99\xd9?'
p1784
tp1785
Rp1786
ag77
(g80
S'\xcd\xcc\xcc\xcc\xcc\xcc\xdc?'
p1787
tp1788
Rp1789
ag77
(g80
S'\x00\x00\x00\x00\x00\x00\xe0?'
p1790
tp1791
Rp1792
ag77
(g80
S'\x9a\x99\x99\x99\x99\x99\xe1?'
p1793
tp1794
Rp1795
ag77
(g80
S'433333\xe3?'
p1796
tp1797
Rp1798
ag77
(g80
S'\xcd\xcc\xcc\xcc\xcc\xcc\xe4?'
p1799
tp1800
Rp1801
ag77
(g80
S'gfffff\xe6?'
p1802
tp1803
Rp1804
ag77
(g80
S'\x00\x00\x00\x00\x00\x00\xe8?'
p1805
tp1806
Rp1807
ag77
(g80
S'\x9a\x99\x99\x99\x99\x99\xe9?'
p1808
tp1809
Rp1810
ag77
(g80
S'433333\xeb?'
p1811
tp1812
Rp1813
ag77
(g80
S'\xcd\xcc\xcc\xcc\xcc\xcc\xec?'
p1814
tp1815
Rp1816
ag77
(g80
S'gfffff\xee?'
p1817
tp1818
Rp1819
ag77
(g80
S'\x00\x00\x00\x00\x00\x00\xf0?'
p1820
tp1821
Rp1822
atp1823
ba(lp1824
g19
(g20
(dp1825
g22
g23
(g24
(I0
tp1826
g26
tp1827
Rp1828
(I1
(I15
tp1829
g33
I00
(lp1830
g37
ag38
ag39
ag40
ag41
ag42
ag43
ag44
ag45
ag46
ag47
ag48
ag49
ag50
ag51
atp1831
bsg53
Nstp1832
Rp1833
a(dp1834
g158
(dp1835
g160
g1735
sg161
(lp1836
(dp1837
g164
g165
(I0
I15
I1
tp1838
Rp1839
sg168
g1757
sasstp1840
bsbssS'LeftMHhook'
p1841
(dp1842
I25
g4
(g5
g6
Ntp1843
Rp1844
(dp1845
g10
g11
sg12
g13
sg14
g4
(g15
g6
Ntp1846
Rp1847
((lp1848
g19
(g20
(dp1849
g22
g23
(g24
(I0
tp1850
g26
tp1851
Rp1852
(I1
(I15
tp1853
g33
I00
(lp1854
g37
ag38
ag39
ag40
ag41
ag42
ag43
ag44
ag45
ag46
ag47
ag48
ag49
ag50
ag51
atp1855
bsg53
Nstp1856
Rp1857
ag19
(g56
(dp1858
g22
g23
(g24
(I0
tp1859
g26
tp1860
Rp1861
(I1
(I21
tp1862
g64
I00
S'\x00\x00\x00\x00\x00\x00\x00\x00\x01\x00\x00\x00\x00\x00\x00\x00\x02\x00\x00\x00\x00\x00\x00\x00\x03\x00\x00\x00\x00\x00\x00\x00\x04\x00\x00\x00\x00\x00\x00\x00\x05\x00\x00\x00\x00\x00\x00\x00\x06\x00\x00\x00\x00\x00\x00\x00\x07\x00\x00\x00\x00\x00\x00\x00\x08\x00\x00\x00\x00\x00\x00\x00\t\x00\x00\x00\x00\x00\x00\x00\n\x00\x00\x00\x00\x00\x00\x00\x0b\x00\x00\x00\x00\x00\x00\x00\x0c\x00\x00\x00\x00\x00\x00\x00\r\x00\x00\x00\x00\x00\x00\x00\x0e\x00\x00\x00\x00\x00\x00\x00\x0f\x00\x00\x00\x00\x00\x00\x00\x10\x00\x00\x00\x00\x00\x00\x00\x11\x00\x00\x00\x00\x00\x00\x00\x12\x00\x00\x00\x00\x00\x00\x00\x13\x00\x00\x00\x00\x00\x00\x00\x14\x00\x00\x00\x00\x00\x00\x00'
p1863
tp1864
bsg53
Nstp1865
Rp1866
a(lp1867
g23
(g24
(I0
tp1868
g26
tp1869
Rp1870
(I1
(I15
I21
tp1871
g33
I01
(lp1872
I1169
aI1162
aI980
aI626
aI322
aI121
aI30
aI14
aI2
aI0
aI0
aI0
aI0
aI0
aI0
aI0
aI0
aI0
aI0
aI0
aI0
aI138
aI112
aI37
aI6
aI2
aI0
aI0
aI0
aI0
aI0
aI0
aI0
aI0
aI0
aI0
aI0
aI0
aI0
aI0
aI0
aI0
aI0
aI26
aI101
aI132
aI136
aI138
aI138
aI138
aI138
aI138
aI138
aI138
aI138
aI138
aI138
aI138
aI138
aI138
aI138
aI138
aI138
aI873
aI880
aI1062
aI1416
aI1720
aI1921
aI2012
aI2028
aI2040
aI2042
aI2042
aI2042
aI2042
aI2042
aI2042
aI2042
aI2042
aI2042
aI2042
aI2042
aI2042
aI2042
aI2042
aI2042
aI2042
aI2042
aI2042
aI2042
aI2042
aI2042
aI2042
aI2042
aI2042
aI2042
aI2042
aI2042
aI2042
aI2042
aI2042
aI2042
aI2042
aI2042
aI138
aI138
aI138
aI138
aI138
aI138
aI138
aI138
aI138
aI138
aI138
aI138
aI138
aI138
aI138
aI138
aI138
aI138
aI138
aI138
aI138
aF0.5724779627815867
aF0.5690499510284035
aF0.47992164544564153
aF0.30656219392752204
aF0.15768854064642507
aF0.059255631733594515
aF0.014691478942213516
aF0.0068560235063663075
aF0.0009794319294809011
aF0.0
aF0.0
aF0.0
aF0.0
aF0.0
aF0.0
aF0.0
aF0.0
aF0.0
aF0.0
aF0.0
aF0.0
aF1.0
aF0.8115942028985508
aF0.26811594202898553
aF0.043478260869565216
aF0.014492753623188406
aF0.0
aF0.0
aF0.0
aF0.0
aF0.0
aF0.0
aF0.0
aF0.0
aF0.0
aF0.0
aF0.0
aF0.0
aF0.0
aF0.0
aF0.0
aF0.0
aI138
aI138
aI138
aI138
aI138
aI138
aI138
aI138
aI138
aI138
aI138
aI138
aI138
aI138
aI138
aI138
aI138
aI138
aI138
aI138
aI138
aI2042
aI2042
aI2042
aI2042
aI2042
aI2042
aI2042
aI2042
aI2042
aI2042
aI2042
aI2042
aI2042
aI2042
aI2042
aI2042
aI2042
aI2042
aI2042
aI2042
aI2042
aF0.0
aF0.18840579710144928
aF0.7318840579710145
aF0.9565217391304348
aF0.9855072463768116
aF1.0
aF1.0
aF1.0
aF1.0
aF1.0
aF1.0
aF1.0
aF1.0
aF1.0
aF1.0
aF1.0
aF1.0
aF1.0
aF1.0
aF1.0
aF1.0
aF0.4275220372184133
aF0.4309500489715965
aF0.5200783545543585
aF0.693437806072478
aF0.8423114593535749
aF0.9407443682664055
aF0.9853085210577864
aF0.9931439764936337
aF0.9990205680705191
aF1.0
aF1.0
aF1.0
aF1.0
aF1.0
aF1.0
aF1.0
aF1.0
aF1.0
aF1.0
aF1.0
aF1.0
aF0.8944146901300689
aF0.9120879120879121
aF0.9636184857423795
aF0.990506329113924
aF0.9938271604938271
aF1.0
aF1.0
aF1.0
aF1.0
aI1
aI1
aI1
aI1
aI1
aI1
aI1
aI1
aI1
aI1
aI1
aI1
aF0.5724779627815867
aF0.5690499510284035
aF0.47992164544564153
aF0.30656219392752204
aF0.15768854064642507
aF0.059255631733594515
aF0.014691478942213516
aF0.0068560235063663075
aF0.0009794319294809011
aF0.0
aF0.0
aF0.0
aF0.0
aF0.0
aF0.0
aF0.0
aF0.0
aF0.0
aF0.0
aF0.0
aF0.0
ag77
(g80
S'\x00\x00\x00\x00\x00\x00\x00\x00'
p1873
tp1874
Rp1875
ag77
(g80
S'\x9a\x99\x99\x99\x99\x99\xa9?'
p1876
tp1877
Rp1878
ag77
(g80
S'\x9a\x99\x99\x99\x99\x99\xb9?'
p1879
tp1880
Rp1881
ag77
(g80
S'433333\xc3?'
p1882
tp1883
Rp1884
ag77
(g80
S'\x9a\x99\x99\x99\x99\x99\xc9?'
p1885
tp1886
Rp1887
ag77
(g80
S'\x00\x00\x00\x00\x00\x00\xd0?'
p1888
tp1889
Rp1890
ag77
(g80
S'433333\xd3?'
p1891
tp1892
Rp1893
ag77
(g80
S'gfffff\xd6?'
p1894
tp1895
Rp1896
ag77
(g80
S'\x9a\x99\x99\x99\x99\x99\xd9?'
p1897
tp1898
Rp1899
ag77
(g80
S'\xcd\xcc\xcc\xcc\xcc\xcc\xdc?'
p1900
tp1901
Rp1902
ag77
(g80
S'\x00\x00\x00\x00\x00\x00\xe0?'
p1903
tp1904
Rp1905
ag77
(g80
S'\x9a\x99\x99\x99\x99\x99\xe1?'
p1906
tp1907
Rp1908
ag77
(g80
S'433333\xe3?'
p1909
tp1910
Rp1911
ag77
(g80
S'\xcd\xcc\xcc\xcc\xcc\xcc\xe4?'
p1912
tp1913
Rp1914
ag77
(g80
S'gfffff\xe6?'
p1915
tp1916
Rp1917
ag77
(g80
S'\x00\x00\x00\x00\x00\x00\xe8?'
p1918
tp1919
Rp1920
ag77
(g80
S'\x9a\x99\x99\x99\x99\x99\xe9?'
p1921
tp1922
Rp1923
ag77
(g80
S'433333\xeb?'
p1924
tp1925
Rp1926
ag77
(g80
S'\xcd\xcc\xcc\xcc\xcc\xcc\xec?'
p1927
tp1928
Rp1929
ag77
(g80
S'gfffff\xee?'
p1930
tp1931
Rp1932
ag77
(g80
S'\x00\x00\x00\x00\x00\x00\xf0?'
p1933
tp1934
Rp1935
atp1936
ba(lp1937
g19
(g20
(dp1938
g22
g23
(g24
(I0
tp1939
g26
tp1940
Rp1941
(I1
(I15
tp1942
g33
I00
(lp1943
g37
ag38
ag39
ag40
ag41
ag42
ag43
ag44
ag45
ag46
ag47
ag48
ag49
ag50
ag51
atp1944
bsg53
Nstp1945
Rp1946
a(dp1947
g158
(dp1948
g160
g1848
sg161
(lp1949
(dp1950
g164
g165
(I0
I15
I1
tp1951
Rp1952
sg168
g1870
sasstp1953
bsbsI50
g4
(g5
g6
Ntp1954
Rp1955
(dp1956
g10
g11
sg12
g13
sg14
g4
(g15
g6
Ntp1957
Rp1958
((lp1959
g19
(g20
(dp1960
g22
g23
(g24
(I0
tp1961
g26
tp1962
Rp1963
(I1
(I15
tp1964
g33
I00
(lp1965
g37
ag38
ag39
ag40
ag41
ag42
ag43
ag44
ag45
ag46
ag47
ag48
ag49
ag50
ag51
atp1966
bsg53
Nstp1967
Rp1968
ag19
(g56
(dp1969
g22
g23
(g24
(I0
tp1970
g26
tp1971
Rp1972
(I1
(I21
tp1973
g64
I00
S'\x00\x00\x00\x00\x00\x00\x00\x00\x01\x00\x00\x00\x00\x00\x00\x00\x02\x00\x00\x00\x00\x00\x00\x00\x03\x00\x00\x00\x00\x00\x00\x00\x04\x00\x00\x00\x00\x00\x00\x00\x05\x00\x00\x00\x00\x00\x00\x00\x06\x00\x00\x00\x00\x00\x00\x00\x07\x00\x00\x00\x00\x00\x00\x00\x08\x00\x00\x00\x00\x00\x00\x00\t\x00\x00\x00\x00\x00\x00\x00\n\x00\x00\x00\x00\x00\x00\x00\x0b\x00\x00\x00\x00\x00\x00\x00\x0c\x00\x00\x00\x00\x00\x00\x00\r\x00\x00\x00\x00\x00\x00\x00\x0e\x00\x00\x00\x00\x00\x00\x00\x0f\x00\x00\x00\x00\x00\x00\x00\x10\x00\x00\x00\x00\x00\x00\x00\x11\x00\x00\x00\x00\x00\x00\x00\x12\x00\x00\x00\x00\x00\x00\x00\x13\x00\x00\x00\x00\x00\x00\x00\x14\x00\x00\x00\x00\x00\x00\x00'
p1974
tp1975
bsg53
Nstp1976
Rp1977
a(lp1978
g23
(g24
(I0
tp1979
g26
tp1980
Rp1981
(I1
(I15
I21
tp1982
g33
I01
(lp1983
I1649
aI1635
aI1278
aI766
aI371
aI135
aI33
aI14
aI2
aI0
aI0
aI0
aI0
aI0
aI0
aI0
aI0
aI0
aI0
aI0
aI0
aI138
aI112
aI37
aI6
aI2
aI0
aI0
aI0
aI0
aI0
aI0
aI0
aI0
aI0
aI0
aI0
aI0
aI0
aI0
aI0
aI0
aI0
aI26
aI101
aI132
aI136
aI138
aI138
aI138
aI138
aI138
aI138
aI138
aI138
aI138
aI138
aI138
aI138
aI138
aI138
aI138
aI138
aI393
aI407
aI764
aI1276
aI1671
aI1907
aI2009
aI2028
aI2040
aI2042
aI2042
aI2042
aI2042
aI2042
aI2042
aI2042
aI2042
aI2042
aI2042
aI2042
aI2042
aI2042
aI2042
aI2042
aI2042
aI2042
aI2042
aI2042
aI2042
aI2042
aI2042
aI2042
aI2042
aI2042
aI2042
aI2042
aI2042
aI2042
aI2042
aI2042
aI2042
aI2042
aI138
aI138
aI138
aI138
aI138
aI138
aI138
aI138
aI138
aI138
aI138
aI138
aI138
aI138
aI138
aI138
aI138
aI138
aI138
aI138
aI138
aF0.807541625857003
aF0.8006856023506367
aF0.6258570029382958
aF0.3751224289911851
aF0.18168462291870716
aF0.06611165523996082
aF0.016160626836434867
aF0.0068560235063663075
aF0.0009794319294809011
aF0.0
aF0.0
aF0.0
aF0.0
aF0.0
aF0.0
aF0.0
aF0.0
aF0.0
aF0.0
aF0.0
aF0.0
aF1.0
aF0.8115942028985508
aF0.26811594202898553
aF0.043478260869565216
aF0.014492753623188406
aF0.0
aF0.0
aF0.0
aF0.0
aF0.0
aF0.0
aF0.0
aF0.0
aF0.0
aF0.0
aF0.0
aF0.0
aF0.0
aF0.0
aF0.0
aF0.0
aI138
aI138
aI138
aI138
aI138
aI138
aI138
aI138
aI138
aI138
aI138
aI138
aI138
aI138
aI138
aI138
aI138
aI138
aI138
aI138
aI138
aI2042
aI2042
aI2042
aI2042
aI2042
aI2042
aI2042
aI2042
aI2042
aI2042
aI2042
aI2042
aI2042
aI2042
aI2042
aI2042
aI2042
aI2042
aI2042
aI2042
aI2042
aF0.0
aF0.18840579710144928
aF0.7318840579710145
aF0.9565217391304348
aF0.9855072463768116
aF1.0
aF1.0
aF1.0
aF1.0
aF1.0
aF1.0
aF1.0
aF1.0
aF1.0
aF1.0
aF1.0
aF1.0
aF1.0
aF1.0
aF1.0
aF1.0
aF0.19245837414299707
aF0.19931439764936337
aF0.37414299706170423
aF0.6248775710088149
aF0.8183153770812929
aF0.9338883447600391
aF0.9838393731635652
aF0.9931439764936337
aF0.9990205680705191
aF1.0
aF1.0
aF1.0
aF1.0
aF1.0
aF1.0
aF1.0
aF1.0
aF1.0
aF1.0
aF1.0
aF1.0
aF0.9227756015668719
aF0.9358900973096738
aF0.9718631178707224
aF0.9922279792746114
aF0.9946380697050938
aF1.0
aF1.0
aF1.0
aF1.0
aI1
aI1
aI1
aI1
aI1
aI1
aI1
aI1
aI1
aI1
aI1
aI1
aF0.807541625857003
aF0.8006856023506367
aF0.6258570029382958
aF0.3751224289911851
aF0.18168462291870716
aF0.06611165523996082
aF0.016160626836434867
aF0.0068560235063663075
aF0.0009794319294809011
aF0.0
aF0.0
aF0.0
aF0.0
aF0.0
aF0.0
aF0.0
aF0.0
aF0.0
aF0.0
aF0.0
aF0.0
ag77
(g80
S'\x00\x00\x00\x00\x00\x00\x00\x00'
p1984
tp1985
Rp1986
ag77
(g80
S'\x9a\x99\x99\x99\x99\x99\xa9?'
p1987
tp1988
Rp1989
ag77
(g80
S'\x9a\x99\x99\x99\x99\x99\xb9?'
p1990
tp1991
Rp1992
ag77
(g80
S'433333\xc3?'
p1993
tp1994
Rp1995
ag77
(g80
S'\x9a\x99\x99\x99\x99\x99\xc9?'
p1996
tp1997
Rp1998
ag77
(g80
S'\x00\x00\x00\x00\x00\x00\xd0?'
p1999
tp2000
Rp2001
ag77
(g80
S'433333\xd3?'
p2002
tp2003
Rp2004
ag77
(g80
S'gfffff\xd6?'
p2005
tp2006
Rp2007
ag77
(g80
S'\x9a\x99\x99\x99\x99\x99\xd9?'
p2008
tp2009
Rp2010
ag77
(g80
S'\xcd\xcc\xcc\xcc\xcc\xcc\xdc?'
p2011
tp2012
Rp2013
ag77
(g80
S'\x00\x00\x00\x00\x00\x00\xe0?'
p2014
tp2015
Rp2016
ag77
(g80
S'\x9a\x99\x99\x99\x99\x99\xe1?'
p2017
tp2018
Rp2019
ag77
(g80
S'433333\xe3?'
p2020
tp2021
Rp2022
ag77
(g80
S'\xcd\xcc\xcc\xcc\xcc\xcc\xe4?'
p2023
tp2024
Rp2025
ag77
(g80
S'gfffff\xe6?'
p2026
tp2027
Rp2028
ag77
(g80
S'\x00\x00\x00\x00\x00\x00\xe8?'
p2029
tp2030
Rp2031
ag77
(g80
S'\x9a\x99\x99\x99\x99\x99\xe9?'
p2032
tp2033
Rp2034
ag77
(g80
S'433333\xeb?'
p2035
tp2036
Rp2037
ag77
(g80
S'\xcd\xcc\xcc\xcc\xcc\xcc\xec?'
p2038
tp2039
Rp2040
ag77
(g80
S'gfffff\xee?'
p2041
tp2042
Rp2043
ag77
(g80
S'\x00\x00\x00\x00\x00\x00\xf0?'
p2044
tp2045
Rp2046
atp2047
ba(lp2048
g19
(g20
(dp2049
g22
g23
(g24
(I0
tp2050
g26
tp2051
Rp2052
(I1
(I15
tp2053
g33
I00
(lp2054
g37
ag38
ag39
ag40
ag41
ag42
ag43
ag44
ag45
ag46
ag47
ag48
ag49
ag50
ag51
atp2055
bsg53
Nstp2056
Rp2057
a(dp2058
g158
(dp2059
g160
g1959
sg161
(lp2060
(dp2061
g164
g165
(I0
I15
I1
tp2062
Rp2063
sg168
g1981
sasstp2064
bsbsI75
g4
(g5
g6
Ntp2065
Rp2066
(dp2067
g10
g11
sg12
g13
sg14
g4
(g15
g6
Ntp2068
Rp2069
((lp2070
g19
(g20
(dp2071
g22
g23
(g24
(I0
tp2072
g26
tp2073
Rp2074
(I1
(I15
tp2075
g33
I00
(lp2076
g37
ag38
ag39
ag40
ag41
ag42
ag43
ag44
ag45
ag46
ag47
ag48
ag49
ag50
ag51
atp2077
bsg53
Nstp2078
Rp2079
ag19
(g56
(dp2080
g22
g23
(g24
(I0
tp2081
g26
tp2082
Rp2083
(I1
(I21
tp2084
g64
I00
S'\x00\x00\x00\x00\x00\x00\x00\x00\x01\x00\x00\x00\x00\x00\x00\x00\x02\x00\x00\x00\x00\x00\x00\x00\x03\x00\x00\x00\x00\x00\x00\x00\x04\x00\x00\x00\x00\x00\x00\x00\x05\x00\x00\x00\x00\x00\x00\x00\x06\x00\x00\x00\x00\x00\x00\x00\x07\x00\x00\x00\x00\x00\x00\x00\x08\x00\x00\x00\x00\x00\x00\x00\t\x00\x00\x00\x00\x00\x00\x00\n\x00\x00\x00\x00\x00\x00\x00\x0b\x00\x00\x00\x00\x00\x00\x00\x0c\x00\x00\x00\x00\x00\x00\x00\r\x00\x00\x00\x00\x00\x00\x00\x0e\x00\x00\x00\x00\x00\x00\x00\x0f\x00\x00\x00\x00\x00\x00\x00\x10\x00\x00\x00\x00\x00\x00\x00\x11\x00\x00\x00\x00\x00\x00\x00\x12\x00\x00\x00\x00\x00\x00\x00\x13\x00\x00\x00\x00\x00\x00\x00\x14\x00\x00\x00\x00\x00\x00\x00'
p2085
tp2086
bsg53
Nstp2087
Rp2088
a(lp2089
g23
(g24
(I0
tp2090
g26
tp2091
Rp2092
(I1
(I15
I21
tp2093
g33
I01
(lp2094
I1772
aI1753
aI1326
aI773
aI371
aI135
aI33
aI14
aI2
aI0
aI0
aI0
aI0
aI0
aI0
aI0
aI0
aI0
aI0
aI0
aI0
aI138
aI112
aI37
aI6
aI2
aI0
aI0
aI0
aI0
aI0
aI0
aI0
aI0
aI0
aI0
aI0
aI0
aI0
aI0
aI0
aI0
aI0
aI26
aI101
aI132
aI136
aI138
aI138
aI138
aI138
aI138
aI138
aI138
aI138
aI138
aI138
aI138
aI138
aI138
aI138
aI138
aI138
aI270
aI289
aI716
aI1269
aI1671
aI1907
aI2009
aI2028
aI2040
aI2042
aI2042
aI2042
aI2042
aI2042
aI2042
aI2042
aI2042
aI2042
aI2042
aI2042
aI2042
aI2042
aI2042
aI2042
aI2042
aI2042
aI2042
aI2042
aI2042
aI2042
aI2042
aI2042
aI2042
aI2042
aI2042
aI2042
aI2042
aI2042
aI2042
aI2042
aI2042
aI2042
aI138
aI138
aI138
aI138
aI138
aI138
aI138
aI138
aI138
aI138
aI138
aI138
aI138
aI138
aI138
aI138
aI138
aI138
aI138
aI138
aI138
aF0.8677766895200784
aF0.8584720861900098
aF0.6493633692458374
aF0.3785504407443683
aF0.18168462291870716
aF0.06611165523996082
aF0.016160626836434867
aF0.0068560235063663075
aF0.0009794319294809011
aF0.0
aF0.0
aF0.0
aF0.0
aF0.0
aF0.0
aF0.0
aF0.0
aF0.0
aF0.0
aF0.0
aF0.0
aF1.0
aF0.8115942028985508
aF0.26811594202898553
aF0.043478260869565216
aF0.014492753623188406
aF0.0
aF0.0
aF0.0
aF0.0
aF0.0
aF0.0
aF0.0
aF0.0
aF0.0
aF0.0
aF0.0
aF0.0
aF0.0
aF0.0
aF0.0
aF0.0
aI138
aI138
aI138
aI138
aI138
aI138
aI138
aI138
aI138
aI138
aI138
aI138
aI138
aI138
aI138
aI138
aI138
aI138
aI138
aI138
aI138
aI2042
aI2042
aI2042
aI2042
aI2042
aI2042
aI2042
aI2042
aI2042
aI2042
aI2042
aI2042
aI2042
aI2042
aI2042
aI2042
aI2042
aI2042
aI2042
aI2042
aI2042
aF0.0
aF0.18840579710144928
aF0.7318840579710145
aF0.9565217391304348
aF0.9855072463768116
aF1.0
aF1.0
aF1.0
aF1.0
aF1.0
aF1.0
aF1.0
aF1.0
aF1.0
aF1.0
aF1.0
aF1.0
aF1.0
aF1.0
aF1.0
aF1.0
aF0.13222331047992164
aF0.14152791380999022
aF0.35063663075416257
aF0.6214495592556317
aF0.8183153770812929
aF0.9338883447600391
aF0.9838393731635652
aF0.9931439764936337
aF0.9990205680705191
aF1.0
aF1.0
aF1.0
aF1.0
aF1.0
aF1.0
aF1.0
aF1.0
aF1.0
aF1.0
aF1.0
aF1.0
aF0.9277486910994764
aF0.9399463806970509
aF0.9728539985326485
aF0.9922978177150192
aF0.9946380697050938
aF1.0
aF1.0
aF1.0
aF1.0
aI1
aI1
aI1
aI1
aI1
aI1
aI1
aI1
aI1
aI1
aI1
aI1
aF0.8677766895200784
aF0.8584720861900098
aF0.6493633692458374
aF0.3785504407443683
aF0.18168462291870716
aF0.06611165523996082
aF0.016160626836434867
aF0.0068560235063663075
aF0.0009794319294809011
aF0.0
aF0.0
aF0.0
aF0.0
aF0.0
aF0.0
aF0.0
aF0.0
aF0.0
aF0.0
aF0.0
aF0.0
ag77
(g80
S'\x00\x00\x00\x00\x00\x00\x00\x00'
p2095
tp2096
Rp2097
ag77
(g80
S'\x9a\x99\x99\x99\x99\x99\xa9?'
p2098
tp2099
Rp2100
ag77
(g80
S'\x9a\x99\x99\x99\x99\x99\xb9?'
p2101
tp2102
Rp2103
ag77
(g80
S'433333\xc3?'
p2104
tp2105
Rp2106
ag77
(g80
S'\x9a\x99\x99\x99\x99\x99\xc9?'
p2107
tp2108
Rp2109
ag77
(g80
S'\x00\x00\x00\x00\x00\x00\xd0?'
p2110
tp2111
Rp2112
ag77
(g80
S'433333\xd3?'
p2113
tp2114
Rp2115
ag77
(g80
S'gfffff\xd6?'
p2116
tp2117
Rp2118
ag77
(g80
S'\x9a\x99\x99\x99\x99\x99\xd9?'
p2119
tp2120
Rp2121
ag77
(g80
S'\xcd\xcc\xcc\xcc\xcc\xcc\xdc?'
p2122
tp2123
Rp2124
ag77
(g80
S'\x00\x00\x00\x00\x00\x00\xe0?'
p2125
tp2126
Rp2127
ag77
(g80
S'\x9a\x99\x99\x99\x99\x99\xe1?'
p2128
tp2129
Rp2130
ag77
(g80
S'433333\xe3?'
p2131
tp2132
Rp2133
ag77
(g80
S'\xcd\xcc\xcc\xcc\xcc\xcc\xe4?'
p2134
tp2135
Rp2136
ag77
(g80
S'gfffff\xe6?'
p2137
tp2138
Rp2139
ag77
(g80
S'\x00\x00\x00\x00\x00\x00\xe8?'
p2140
tp2141
Rp2142
ag77
(g80
S'\x9a\x99\x99\x99\x99\x99\xe9?'
p2143
tp2144
Rp2145
ag77
(g80
S'433333\xeb?'
p2146
tp2147
Rp2148
ag77
(g80
S'\xcd\xcc\xcc\xcc\xcc\xcc\xec?'
p2149
tp2150
Rp2151
ag77
(g80
S'gfffff\xee?'
p2152
tp2153
Rp2154
ag77
(g80
S'\x00\x00\x00\x00\x00\x00\xf0?'
p2155
tp2156
Rp2157
atp2158
ba(lp2159
g19
(g20
(dp2160
g22
g23
(g24
(I0
tp2161
g26
tp2162
Rp2163
(I1
(I15
tp2164
g33
I00
(lp2165
g37
ag38
ag39
ag40
ag41
ag42
ag43
ag44
ag45
ag46
ag47
ag48
ag49
ag50
ag51
atp2166
bsg53
Nstp2167
Rp2168
a(dp2169
g158
(dp2170
g160
g2070
sg161
(lp2171
(dp2172
g164
g165
(I0
I15
I1
tp2173
Rp2174
sg168
g2092
sasstp2175
bsbsI100
g4
(g5
g6
Ntp2176
Rp2177
(dp2178
g10
g11
sg12
g13
sg14
g4
(g15
g6
Ntp2179
Rp2180
((lp2181
g19
(g20
(dp2182
g22
g23
(g24
(I0
tp2183
g26
tp2184
Rp2185
(I1
(I15
tp2186
g33
I00
(lp2187
g37
ag38
ag39
ag40
ag41
ag42
ag43
ag44
ag45
ag46
ag47
ag48
ag49
ag50
ag51
atp2188
bsg53
Nstp2189
Rp2190
ag19
(g56
(dp2191
g22
g23
(g24
(I0
tp2192
g26
tp2193
Rp2194
(I1
(I21
tp2195
g64
I00
S'\x00\x00\x00\x00\x00\x00\x00\x00\x01\x00\x00\x00\x00\x00\x00\x00\x02\x00\x00\x00\x00\x00\x00\x00\x03\x00\x00\x00\x00\x00\x00\x00\x04\x00\x00\x00\x00\x00\x00\x00\x05\x00\x00\x00\x00\x00\x00\x00\x06\x00\x00\x00\x00\x00\x00\x00\x07\x00\x00\x00\x00\x00\x00\x00\x08\x00\x00\x00\x00\x00\x00\x00\t\x00\x00\x00\x00\x00\x00\x00\n\x00\x00\x00\x00\x00\x00\x00\x0b\x00\x00\x00\x00\x00\x00\x00\x0c\x00\x00\x00\x00\x00\x00\x00\r\x00\x00\x00\x00\x00\x00\x00\x0e\x00\x00\x00\x00\x00\x00\x00\x0f\x00\x00\x00\x00\x00\x00\x00\x10\x00\x00\x00\x00\x00\x00\x00\x11\x00\x00\x00\x00\x00\x00\x00\x12\x00\x00\x00\x00\x00\x00\x00\x13\x00\x00\x00\x00\x00\x00\x00\x14\x00\x00\x00\x00\x00\x00\x00'
p2196
tp2197
bsg53
Nstp2198
Rp2199
a(lp2200
g23
(g24
(I0
tp2201
g26
tp2202
Rp2203
(I1
(I15
I21
tp2204
g33
I01
(lp2205
I1837
aI1816
aI1347
aI776
aI372
aI135
aI33
aI14
aI2
aI0
aI0
aI0
aI0
aI0
aI0
aI0
aI0
aI0
aI0
aI0
aI0
aI138
aI112
aI37
aI6
aI2
aI0
aI0
aI0
aI0
aI0
aI0
aI0
aI0
aI0
aI0
aI0
aI0
aI0
aI0
aI0
aI0
aI0
aI26
aI101
aI132
aI136
aI138
aI138
aI138
aI138
aI138
aI138
aI138
aI138
aI138
aI138
aI138
aI138
aI138
aI138
aI138
aI138
aI205
aI226
aI695
aI1266
aI1670
aI1907
aI2009
aI2028
aI2040
aI2042
aI2042
aI2042
aI2042
aI2042
aI2042
aI2042
aI2042
aI2042
aI2042
aI2042
aI2042
aI2042
aI2042
aI2042
aI2042
aI2042
aI2042
aI2042
aI2042
aI2042
aI2042
aI2042
aI2042
aI2042
aI2042
aI2042
aI2042
aI2042
aI2042
aI2042
aI2042
aI2042
aI138
aI138
aI138
aI138
aI138
aI138
aI138
aI138
aI138
aI138
aI138
aI138
aI138
aI138
aI138
aI138
aI138
aI138
aI138
aI138
aI138
aF0.8996082272282077
aF0.8893241919686582
aF0.6596474045053868
aF0.38001958863858964
aF0.1821743388834476
aF0.06611165523996082
aF0.016160626836434867
aF0.0068560235063663075
aF0.0009794319294809011
aF0.0
aF0.0
aF0.0
aF0.0
aF0.0
aF0.0
aF0.0
aF0.0
aF0.0
aF0.0
aF0.0
aF0.0
aF1.0
aF0.8115942028985508
aF0.26811594202898553
aF0.043478260869565216
aF0.014492753623188406
aF0.0
aF0.0
aF0.0
aF0.0
aF0.0
aF0.0
aF0.0
aF0.0
aF0.0
aF0.0
aF0.0
aF0.0
aF0.0
aF0.0
aF0.0
aF0.0
aI138
aI138
aI138
aI138
aI138
aI138
aI138
aI138
aI138
aI138
aI138
aI138
aI138
aI138
aI138
aI138
aI138
aI138
aI138
aI138
aI138
aI2042
aI2042
aI2042
aI2042
aI2042
aI2042
aI2042
aI2042
aI2042
aI2042
aI2042
aI2042
aI2042
aI2042
aI2042
aI2042
aI2042
aI2042
aI2042
aI2042
aI2042
aF0.0
aF0.18840579710144928
aF0.7318840579710145
aF0.9565217391304348
aF0.9855072463768116
aF1.0
aF1.0
aF1.0
aF1.0
aF1.0
aF1.0
aF1.0
aF1.0
aF1.0
aF1.0
aF1.0
aF1.0
aF1.0
aF1.0
aF1.0
aF1.0
aF0.10039177277179236
aF0.11067580803134182
aF0.3403525954946131
aF0.6199804113614104
aF0.8178256611165524
aF0.9338883447600391
aF0.9838393731635652
aF0.9931439764936337
aF0.9990205680705191
aF1.0
aF1.0
aF1.0
aF1.0
aF1.0
aF1.0
aF1.0
aF1.0
aF1.0
aF1.0
aF1.0
aF1.0
aF0.930126582278481
aF0.941908713692946
aF0.9732658959537572
aF0.9923273657289002
aF0.9946524064171123
aF1.0
aF1.0
aF1.0
aF1.0
aI1
aI1
aI1
aI1
aI1
aI1
aI1
aI1
aI1
aI1
aI1
aI1
aF0.8996082272282077
aF0.8893241919686582
aF0.6596474045053868
aF0.38001958863858964
aF0.1821743388834476
aF0.06611165523996082
aF0.016160626836434867
aF0.0068560235063663075
aF0.0009794319294809011
aF0.0
aF0.0
aF0.0
aF0.0
aF0.0
aF0.0
aF0.0
aF0.0
aF0.0
aF0.0
aF0.0
aF0.0
ag77
(g80
S'\x00\x00\x00\x00\x00\x00\x00\x00'
p2206
tp2207
Rp2208
ag77
(g80
S'\x9a\x99\x99\x99\x99\x99\xa9?'
p2209
tp2210
Rp2211
ag77
(g80
S'\x9a\x99\x99\x99\x99\x99\xb9?'
p2212
tp2213
Rp2214
ag77
(g80
S'433333\xc3?'
p2215
tp2216
Rp2217
ag77
(g80
S'\x9a\x99\x99\x99\x99\x99\xc9?'
p2218
tp2219
Rp2220
ag77
(g80
S'\x00\x00\x00\x00\x00\x00\xd0?'
p2221
tp2222
Rp2223
ag77
(g80
S'433333\xd3?'
p2224
tp2225
Rp2226
ag77
(g80
S'gfffff\xd6?'
p2227
tp2228
Rp2229
ag77
(g80
S'\x9a\x99\x99\x99\x99\x99\xd9?'
p2230
tp2231
Rp2232
ag77
(g80
S'\xcd\xcc\xcc\xcc\xcc\xcc\xdc?'
p2233
tp2234
Rp2235
ag77
(g80
S'\x00\x00\x00\x00\x00\x00\xe0?'
p2236
tp2237
Rp2238
ag77
(g80
S'\x9a\x99\x99\x99\x99\x99\xe1?'
p2239
tp2240
Rp2241
ag77
(g80
S'433333\xe3?'
p2242
tp2243
Rp2244
ag77
(g80
S'\xcd\xcc\xcc\xcc\xcc\xcc\xe4?'
p2245
tp2246
Rp2247
ag77
(g80
S'gfffff\xe6?'
p2248
tp2249
Rp2250
ag77
(g80
S'\x00\x00\x00\x00\x00\x00\xe8?'
p2251
tp2252
Rp2253
ag77
(g80
S'\x9a\x99\x99\x99\x99\x99\xe9?'
p2254
tp2255
Rp2256
ag77
(g80
S'433333\xeb?'
p2257
tp2258
Rp2259
ag77
(g80
S'\xcd\xcc\xcc\xcc\xcc\xcc\xec?'
p2260
tp2261
Rp2262
ag77
(g80
S'gfffff\xee?'
p2263
tp2264
Rp2265
ag77
(g80
S'\x00\x00\x00\x00\x00\x00\xf0?'
p2266
tp2267
Rp2268
atp2269
ba(lp2270
g19
(g20
(dp2271
g22
g23
(g24
(I0
tp2272
g26
tp2273
Rp2274
(I1
(I15
tp2275
g33
I00
(lp2276
g37
ag38
ag39
ag40
ag41
ag42
ag43
ag44
ag45
ag46
ag47
ag48
ag49
ag50
ag51
atp2277
bsg53
Nstp2278
Rp2279
a(dp2280
g158
(dp2281
g160
g2181
sg161
(lp2282
(dp2283
g164
g165
(I0
I15
I1
tp2284
Rp2285
sg168
g2203
sasstp2286
bsbssS'MouthHook'
p2287
(dp2288
I25
g4
(g5
g6
Ntp2289
Rp2290
(dp2291
g10
g11
sg12
g13
sg14
g4
(g15
g6
Ntp2292
Rp2293
((lp2294
g19
(g20
(dp2295
g22
g23
(g24
(I0
tp2296
g26
tp2297
Rp2298
(I1
(I15
tp2299
g33
I00
(lp2300
g37
ag38
ag39
ag40
ag41
ag42
ag43
ag44
ag45
ag46
ag47
ag48
ag49
ag50
ag51
atp2301
bsg53
Nstp2302
Rp2303
ag19
(g56
(dp2304
g22
g23
(g24
(I0
tp2305
g26
tp2306
Rp2307
(I1
(I21
tp2308
g64
I00
S'\x00\x00\x00\x00\x00\x00\x00\x00\x01\x00\x00\x00\x00\x00\x00\x00\x02\x00\x00\x00\x00\x00\x00\x00\x03\x00\x00\x00\x00\x00\x00\x00\x04\x00\x00\x00\x00\x00\x00\x00\x05\x00\x00\x00\x00\x00\x00\x00\x06\x00\x00\x00\x00\x00\x00\x00\x07\x00\x00\x00\x00\x00\x00\x00\x08\x00\x00\x00\x00\x00\x00\x00\t\x00\x00\x00\x00\x00\x00\x00\n\x00\x00\x00\x00\x00\x00\x00\x0b\x00\x00\x00\x00\x00\x00\x00\x0c\x00\x00\x00\x00\x00\x00\x00\r\x00\x00\x00\x00\x00\x00\x00\x0e\x00\x00\x00\x00\x00\x00\x00\x0f\x00\x00\x00\x00\x00\x00\x00\x10\x00\x00\x00\x00\x00\x00\x00\x11\x00\x00\x00\x00\x00\x00\x00\x12\x00\x00\x00\x00\x00\x00\x00\x13\x00\x00\x00\x00\x00\x00\x00\x14\x00\x00\x00\x00\x00\x00\x00'
p2309
tp2310
bsg53
Nstp2311
Rp2312
a(lp2313
g23
(g24
(I0
tp2314
g26
tp2315
Rp2316
(I1
(I15
I21
tp2317
g33
I01
(lp2318
I1115
aI1115
aI1083
aI904
aI587
aI327
aI154
aI54
aI7
aI1
aI0
aI0
aI0
aI0
aI0
aI0
aI0
aI0
aI0
aI0
aI0
aI0
aI0
aI0
aI0
aI0
aI0
aI0
aI0
aI0
aI0
aI0
aI0
aI0
aI0
aI0
aI0
aI0
aI0
aI0
aI0
aI0
aI0
aI0
aI0
aI0
aI0
aI0
aI0
aI0
aI0
aI0
aI0
aI0
aI0
aI0
aI0
aI0
aI0
aI0
aI0
aI0
aI0
aI1065
aI1065
aI1097
aI1276
aI1593
aI1853
aI2026
aI2126
aI2173
aI2179
aI2180
aI2180
aI2180
aI2180
aI2180
aI2180
aI2180
aI2180
aI2180
aI2180
aI2180
aI2180
aI2180
aI2180
aI2180
aI2180
aI2180
aI2180
aI2180
aI2180
aI2180
aI2180
aI2180
aI2180
aI2180
aI2180
aI2180
aI2180
aI2180
aI2180
aI2180
aI2180
aI0
aI0
aI0
aI0
aI0
aI0
aI0
aI0
aI0
aI0
aI0
aI0
aI0
aI0
aI0
aI0
aI0
aI0
aI0
aI0
aI0
aF0.5114678899082569
aF0.5114678899082569
aF0.49678899082568806
aF0.41467889908256883
aF0.26926605504587153
aF0.15
aF0.07064220183486239
aF0.024770642201834864
aF0.003211009174311927
aF0.00045871559633027525
aF0.0
aF0.0
aF0.0
aF0.0
aF0.0
aF0.0
aF0.0
aF0.0
aF0.0
aF0.0
aF0.0
aF0.0
aF0.0
aF0.0
aF0.0
aF0.0
aF0.0
aF0.0
aF0.0
aF0.0
aF0.0
aF0.0
aF0.0
aF0.0
aF0.0
aF0.0
aF0.0
aF0.0
aF0.0
aF0.0
aF0.0
aF0.0
aI0
aI0
aI0
aI0
aI0
aI0
aI0
aI0
aI0
aI0
aI0
aI0
aI0
aI0
aI0
aI0
aI0
aI0
aI0
aI0
aI0
aI2180
aI2180
aI2180
aI2180
aI2180
aI2180
aI2180
aI2180
aI2180
aI2180
aI2180
aI2180
aI2180
aI2180
aI2180
aI2180
aI2180
aI2180
aI2180
aI2180
aI2180
aF0.0
aF0.0
aF0.0
aF0.0
aF0.0
aF0.0
aF0.0
aF0.0
aF0.0
aF0.0
aF0.0
aF0.0
aF0.0
aF0.0
aF0.0
aF0.0
aF0.0
aF0.0
aF0.0
aF0.0
aF0.0
aF0.48853211009174313
aF0.48853211009174313
aF0.5032110091743119
aF0.5853211009174312
aF0.7307339449541285
aF0.85
aF0.9293577981651376
aF0.9752293577981651
aF0.9967889908256881
aF0.9995412844036697
aF1.0
aF1.0
aF1.0
aF1.0
aF1.0
aF1.0
aF1.0
aF1.0
aF1.0
aF1.0
aF1.0
aF1.0
aF1.0
aF1.0
aF1.0
aF1.0
aF1.0
aF1.0
aF1.0
aF1.0
aF1.0
aI1
aI1
aI1
aI1
aI1
aI1
aI1
aI1
aI1
aI1
aI1
aF0.5114678899082569
aF0.5114678899082569
aF0.49678899082568806
aF0.41467889908256883
aF0.26926605504587153
aF0.15
aF0.07064220183486239
aF0.024770642201834864
aF0.003211009174311927
aF0.00045871559633027525
aF0.0
aF0.0
aF0.0
aF0.0
aF0.0
aF0.0
aF0.0
aF0.0
aF0.0
aF0.0
aF0.0
ag77
(g80
S'\x00\x00\x00\x00\x00\x00\x00\x00'
p2319
tp2320
Rp2321
ag77
(g80
S'\x9a\x99\x99\x99\x99\x99\xa9?'
p2322
tp2323
Rp2324
ag77
(g80
S'\x9a\x99\x99\x99\x99\x99\xb9?'
p2325
tp2326
Rp2327
ag77
(g80
S'433333\xc3?'
p2328
tp2329
Rp2330
ag77
(g80
S'\x9a\x99\x99\x99\x99\x99\xc9?'
p2331
tp2332
Rp2333
ag77
(g80
S'\x00\x00\x00\x00\x00\x00\xd0?'
p2334
tp2335
Rp2336
ag77
(g80
S'433333\xd3?'
p2337
tp2338
Rp2339
ag77
(g80
S'gfffff\xd6?'
p2340
tp2341
Rp2342
ag77
(g80
S'\x9a\x99\x99\x99\x99\x99\xd9?'
p2343
tp2344
Rp2345
ag77
(g80
S'\xcd\xcc\xcc\xcc\xcc\xcc\xdc?'
p2346
tp2347
Rp2348
ag77
(g80
S'\x00\x00\x00\x00\x00\x00\xe0?'
p2349
tp2350
Rp2351
ag77
(g80
S'\x9a\x99\x99\x99\x99\x99\xe1?'
p2352
tp2353
Rp2354
ag77
(g80
S'433333\xe3?'
p2355
tp2356
Rp2357
ag77
(g80
S'\xcd\xcc\xcc\xcc\xcc\xcc\xe4?'
p2358
tp2359
Rp2360
ag77
(g80
S'gfffff\xe6?'
p2361
tp2362
Rp2363
ag77
(g80
S'\x00\x00\x00\x00\x00\x00\xe8?'
p2364
tp2365
Rp2366
ag77
(g80
S'\x9a\x99\x99\x99\x99\x99\xe9?'
p2367
tp2368
Rp2369
ag77
(g80
S'433333\xeb?'
p2370
tp2371
Rp2372
ag77
(g80
S'\xcd\xcc\xcc\xcc\xcc\xcc\xec?'
p2373
tp2374
Rp2375
ag77
(g80
S'gfffff\xee?'
p2376
tp2377
Rp2378
ag77
(g80
S'\x00\x00\x00\x00\x00\x00\xf0?'
p2379
tp2380
Rp2381
atp2382
ba(lp2383
g19
(g20
(dp2384
g22
g23
(g24
(I0
tp2385
g26
tp2386
Rp2387
(I1
(I15
tp2388
g33
I00
(lp2389
g37
ag38
ag39
ag40
ag41
ag42
ag43
ag44
ag45
ag46
ag47
ag48
ag49
ag50
ag51
atp2390
bsg53
Nstp2391
Rp2392
a(dp2393
g158
(dp2394
g160
g2294
sg161
(lp2395
(dp2396
g164
g165
(I0
I15
I1
tp2397
Rp2398
sg168
g2316
sasstp2399
bsbsI50
g4
(g5
g6
Ntp2400
Rp2401
(dp2402
g10
g11
sg12
g13
sg14
g4
(g15
g6
Ntp2403
Rp2404
((lp2405
g19
(g20
(dp2406
g22
g23
(g24
(I0
tp2407
g26
tp2408
Rp2409
(I1
(I15
tp2410
g33
I00
(lp2411
g37
ag38
ag39
ag40
ag41
ag42
ag43
ag44
ag45
ag46
ag47
ag48
ag49
ag50
ag51
atp2412
bsg53
Nstp2413
Rp2414
ag19
(g56
(dp2415
g22
g23
(g24
(I0
tp2416
g26
tp2417
Rp2418
(I1
(I21
tp2419
g64
I00
S'\x00\x00\x00\x00\x00\x00\x00\x00\x01\x00\x00\x00\x00\x00\x00\x00\x02\x00\x00\x00\x00\x00\x00\x00\x03\x00\x00\x00\x00\x00\x00\x00\x04\x00\x00\x00\x00\x00\x00\x00\x05\x00\x00\x00\x00\x00\x00\x00\x06\x00\x00\x00\x00\x00\x00\x00\x07\x00\x00\x00\x00\x00\x00\x00\x08\x00\x00\x00\x00\x00\x00\x00\t\x00\x00\x00\x00\x00\x00\x00\n\x00\x00\x00\x00\x00\x00\x00\x0b\x00\x00\x00\x00\x00\x00\x00\x0c\x00\x00\x00\x00\x00\x00\x00\r\x00\x00\x00\x00\x00\x00\x00\x0e\x00\x00\x00\x00\x00\x00\x00\x0f\x00\x00\x00\x00\x00\x00\x00\x10\x00\x00\x00\x00\x00\x00\x00\x11\x00\x00\x00\x00\x00\x00\x00\x12\x00\x00\x00\x00\x00\x00\x00\x13\x00\x00\x00\x00\x00\x00\x00\x14\x00\x00\x00\x00\x00\x00\x00'
p2420
tp2421
bsg53
Nstp2422
Rp2423
a(lp2424
g23
(g24
(I0
tp2425
g26
tp2426
Rp2427
(I1
(I15
I21
tp2428
g33
I01
(lp2429
I1773
aI1772
aI1699
aI1375
aI891
aI496
aI214
aI68
aI10
aI2
aI0
aI0
aI0
aI0
aI0
aI0
aI0
aI0
aI0
aI0
aI0
aI0
aI0
aI0
aI0
aI0
aI0
aI0
aI0
aI0
aI0
aI0
aI0
aI0
aI0
aI0
aI0
aI0
aI0
aI0
aI0
aI0
aI0
aI0
aI0
aI0
aI0
aI0
aI0
aI0
aI0
aI0
aI0
aI0
aI0
aI0
aI0
aI0
aI0
aI0
aI0
aI0
aI0
aI407
aI408
aI481
aI805
aI1289
aI1684
aI1966
aI2112
aI2170
aI2178
aI2180
aI2180
aI2180
aI2180
aI2180
aI2180
aI2180
aI2180
aI2180
aI2180
aI2180
aI2180
aI2180
aI2180
aI2180
aI2180
aI2180
aI2180
aI2180
aI2180
aI2180
aI2180
aI2180
aI2180
aI2180
aI2180
aI2180
aI2180
aI2180
aI2180
aI2180
aI2180
aI0
aI0
aI0
aI0
aI0
aI0
aI0
aI0
aI0
aI0
aI0
aI0
aI0
aI0
aI0
aI0
aI0
aI0
aI0
aI0
aI0
aF0.813302752293578
aF0.8128440366972477
aF0.7793577981651376
aF0.6307339449541285
aF0.4087155963302752
aF0.22752293577981653
aF0.0981651376146789
aF0.031192660550458717
aF0.0045871559633027525
aF0.0009174311926605505
aF0.0
aF0.0
aF0.0
aF0.0
aF0.0
aF0.0
aF0.0
aF0.0
aF0.0
aF0.0
aF0.0
aF0.0
aF0.0
aF0.0
aF0.0
aF0.0
aF0.0
aF0.0
aF0.0
aF0.0
aF0.0
aF0.0
aF0.0
aF0.0
aF0.0
aF0.0
aF0.0
aF0.0
aF0.0
aF0.0
aF0.0
aF0.0
aI0
aI0
aI0
aI0
aI0
aI0
aI0
aI0
aI0
aI0
aI0
aI0
aI0
aI0
aI0
aI0
aI0
aI0
aI0
aI0
aI0
aI2180
aI2180
aI2180
aI2180
aI2180
aI2180
aI2180
aI2180
aI2180
aI2180
aI2180
aI2180
aI2180
aI2180
aI2180
aI2180
aI2180
aI2180
aI2180
aI2180
aI2180
aF0.0
aF0.0
aF0.0
aF0.0
aF0.0
aF0.0
aF0.0
aF0.0
aF0.0
aF0.0
aF0.0
aF0.0
aF0.0
aF0.0
aF0.0
aF0.0
aF0.0
aF0.0
aF0.0
aF0.0
aF0.0
aF0.18669724770642201
aF0.1871559633027523
aF0.22064220183486238
aF0.36926605504587157
aF0.5912844036697248
aF0.7724770642201835
aF0.9018348623853211
aF0.9688073394495413
aF0.9954128440366973
aF0.9990825688073395
aF1.0
aF1.0
aF1.0
aF1.0
aF1.0
aF1.0
aF1.0
aF1.0
aF1.0
aF1.0
aF1.0
aF1.0
aF1.0
aF1.0
aF1.0
aF1.0
aF1.0
aF1.0
aF1.0
aF1.0
aF1.0
aI1
aI1
aI1
aI1
aI1
aI1
aI1
aI1
aI1
aI1
aI1
aF0.813302752293578
aF0.8128440366972477
aF0.7793577981651376
aF0.6307339449541285
aF0.4087155963302752
aF0.22752293577981653
aF0.0981651376146789
aF0.031192660550458717
aF0.0045871559633027525
aF0.0009174311926605505
aF0.0
aF0.0
aF0.0
aF0.0
aF0.0
aF0.0
aF0.0
aF0.0
aF0.0
aF0.0
aF0.0
ag77
(g80
S'\x00\x00\x00\x00\x00\x00\x00\x00'
p2430
tp2431
Rp2432
ag77
(g80
S'\x9a\x99\x99\x99\x99\x99\xa9?'
p2433
tp2434
Rp2435
ag77
(g80
S'\x9a\x99\x99\x99\x99\x99\xb9?'
p2436
tp2437
Rp2438
ag77
(g80
S'433333\xc3?'
p2439
tp2440
Rp2441
ag77
(g80
S'\x9a\x99\x99\x99\x99\x99\xc9?'
p2442
tp2443
Rp2444
ag77
(g80
S'\x00\x00\x00\x00\x00\x00\xd0?'
p2445
tp2446
Rp2447
ag77
(g80
S'433333\xd3?'
p2448
tp2449
Rp2450
ag77
(g80
S'gfffff\xd6?'
p2451
tp2452
Rp2453
ag77
(g80
S'\x9a\x99\x99\x99\x99\x99\xd9?'
p2454
tp2455
Rp2456
ag77
(g80
S'\xcd\xcc\xcc\xcc\xcc\xcc\xdc?'
p2457
tp2458
Rp2459
ag77
(g80
S'\x00\x00\x00\x00\x00\x00\xe0?'
p2460
tp2461
Rp2462
ag77
(g80
S'\x9a\x99\x99\x99\x99\x99\xe1?'
p2463
tp2464
Rp2465
ag77
(g80
S'433333\xe3?'
p2466
tp2467
Rp2468
ag77
(g80
S'\xcd\xcc\xcc\xcc\xcc\xcc\xe4?'
p2469
tp2470
Rp2471
ag77
(g80
S'gfffff\xe6?'
p2472
tp2473
Rp2474
ag77
(g80
S'\x00\x00\x00\x00\x00\x00\xe8?'
p2475
tp2476
Rp2477
ag77
(g80
S'\x9a\x99\x99\x99\x99\x99\xe9?'
p2478
tp2479
Rp2480
ag77
(g80
S'433333\xeb?'
p2481
tp2482
Rp2483
ag77
(g80
S'\xcd\xcc\xcc\xcc\xcc\xcc\xec?'
p2484
tp2485
Rp2486
ag77
(g80
S'gfffff\xee?'
p2487
tp2488
Rp2489
ag77
(g80
S'\x00\x00\x00\x00\x00\x00\xf0?'
p2490
tp2491
Rp2492
atp2493
ba(lp2494
g19
(g20
(dp2495
g22
g23
(g24
(I0
tp2496
g26
tp2497
Rp2498
(I1
(I15
tp2499
g33
I00
(lp2500
g37
ag38
ag39
ag40
ag41
ag42
ag43
ag44
ag45
ag46
ag47
ag48
ag49
ag50
ag51
atp2501
bsg53
Nstp2502
Rp2503
a(dp2504
g158
(dp2505
g160
g2405
sg161
(lp2506
(dp2507
g164
g165
(I0
I15
I1
tp2508
Rp2509
sg168
g2427
sasstp2510
bsbsI75
g4
(g5
g6
Ntp2511
Rp2512
(dp2513
g10
g11
sg12
g13
sg14
g4
(g15
g6
Ntp2514
Rp2515
((lp2516
g19
(g20
(dp2517
g22
g23
(g24
(I0
tp2518
g26
tp2519
Rp2520
(I1
(I15
tp2521
g33
I00
(lp2522
g37
ag38
ag39
ag40
ag41
ag42
ag43
ag44
ag45
ag46
ag47
ag48
ag49
ag50
ag51
atp2523
bsg53
Nstp2524
Rp2525
ag19
(g56
(dp2526
g22
g23
(g24
(I0
tp2527
g26
tp2528
Rp2529
(I1
(I21
tp2530
g64
I00
S'\x00\x00\x00\x00\x00\x00\x00\x00\x01\x00\x00\x00\x00\x00\x00\x00\x02\x00\x00\x00\x00\x00\x00\x00\x03\x00\x00\x00\x00\x00\x00\x00\x04\x00\x00\x00\x00\x00\x00\x00\x05\x00\x00\x00\x00\x00\x00\x00\x06\x00\x00\x00\x00\x00\x00\x00\x07\x00\x00\x00\x00\x00\x00\x00\x08\x00\x00\x00\x00\x00\x00\x00\t\x00\x00\x00\x00\x00\x00\x00\n\x00\x00\x00\x00\x00\x00\x00\x0b\x00\x00\x00\x00\x00\x00\x00\x0c\x00\x00\x00\x00\x00\x00\x00\r\x00\x00\x00\x00\x00\x00\x00\x0e\x00\x00\x00\x00\x00\x00\x00\x0f\x00\x00\x00\x00\x00\x00\x00\x10\x00\x00\x00\x00\x00\x00\x00\x11\x00\x00\x00\x00\x00\x00\x00\x12\x00\x00\x00\x00\x00\x00\x00\x13\x00\x00\x00\x00\x00\x00\x00\x14\x00\x00\x00\x00\x00\x00\x00'
p2531
tp2532
bsg53
Nstp2533
Rp2534
a(lp2535
g23
(g24
(I0
tp2536
g26
tp2537
Rp2538
(I1
(I15
I21
tp2539
g33
I01
(lp2540
I1963
aI1961
aI1855
aI1456
aI913
aI501
aI215
aI68
aI10
aI2
aI0
aI0
aI0
aI0
aI0
aI0
aI0
aI0
aI0
aI0
aI0
aI0
aI0
aI0
aI0
aI0
aI0
aI0
aI0
aI0
aI0
aI0
aI0
aI0
aI0
aI0
aI0
aI0
aI0
aI0
aI0
aI0
aI0
aI0
aI0
aI0
aI0
aI0
aI0
aI0
aI0
aI0
aI0
aI0
aI0
aI0
aI0
aI0
aI0
aI0
aI0
aI0
aI0
aI217
aI219
aI325
aI724
aI1267
aI1679
aI1965
aI2112
aI2170
aI2178
aI2180
aI2180
aI2180
aI2180
aI2180
aI2180
aI2180
aI2180
aI2180
aI2180
aI2180
aI2180
aI2180
aI2180
aI2180
aI2180
aI2180
aI2180
aI2180
aI2180
aI2180
aI2180
aI2180
aI2180
aI2180
aI2180
aI2180
aI2180
aI2180
aI2180
aI2180
aI2180
aI0
aI0
aI0
aI0
aI0
aI0
aI0
aI0
aI0
aI0
aI0
aI0
aI0
aI0
aI0
aI0
aI0
aI0
aI0
aI0
aI0
aF0.9004587155963303
aF0.8995412844036698
aF0.8509174311926605
aF0.6678899082568808
aF0.4188073394495413
aF0.2298165137614679
aF0.09862385321100918
aF0.031192660550458717
aF0.0045871559633027525
aF0.0009174311926605505
aF0.0
aF0.0
aF0.0
aF0.0
aF0.0
aF0.0
aF0.0
aF0.0
aF0.0
aF0.0
aF0.0
aF0.0
aF0.0
aF0.0
aF0.0
aF0.0
aF0.0
aF0.0
aF0.0
aF0.0
aF0.0
aF0.0
aF0.0
aF0.0
aF0.0
aF0.0
aF0.0
aF0.0
aF0.0
aF0.0
aF0.0
aF0.0
aI0
aI0
aI0
aI0
aI0
aI0
aI0
aI0
aI0
aI0
aI0
aI0
aI0
aI0
aI0
aI0
aI0
aI0
aI0
aI0
aI0
aI2180
aI2180
aI2180
aI2180
aI2180
aI2180
aI2180
aI2180
aI2180
aI2180
aI2180
aI2180
aI2180
aI2180
aI2180
aI2180
aI2180
aI2180
aI2180
aI2180
aI2180
aF0.0
aF0.0
aF0.0
aF0.0
aF0.0
aF0.0
aF0.0
aF0.0
aF0.0
aF0.0
aF0.0
aF0.0
aF0.0
aF0.0
aF0.0
aF0.0
aF0.0
aF0.0
aF0.0
aF0.0
aF0.0
aF0.09954128440366973
aF0.10045871559633028
aF0.14908256880733944
aF0.3321100917431193
aF0.5811926605504587
aF0.7701834862385321
aF0.9013761467889908
aF0.9688073394495413
aF0.9954128440366973
aF0.9990825688073395
aF1.0
aF1.0
aF1.0
aF1.0
aF1.0
aF1.0
aF1.0
aF1.0
aF1.0
aF1.0
aF1.0
aF1.0
aF1.0
aF1.0
aF1.0
aF1.0
aF1.0
aF1.0
aF1.0
aF1.0
aF1.0
aI1
aI1
aI1
aI1
aI1
aI1
aI1
aI1
aI1
aI1
aI1
aF0.9004587155963303
aF0.8995412844036698
aF0.8509174311926605
aF0.6678899082568808
aF0.4188073394495413
aF0.2298165137614679
aF0.09862385321100918
aF0.031192660550458717
aF0.0045871559633027525
aF0.0009174311926605505
aF0.0
aF0.0
aF0.0
aF0.0
aF0.0
aF0.0
aF0.0
aF0.0
aF0.0
aF0.0
aF0.0
ag77
(g80
S'\x00\x00\x00\x00\x00\x00\x00\x00'
p2541
tp2542
Rp2543
ag77
(g80
S'\x9a\x99\x99\x99\x99\x99\xa9?'
p2544
tp2545
Rp2546
ag77
(g80
S'\x9a\x99\x99\x99\x99\x99\xb9?'
p2547
tp2548
Rp2549
ag77
(g80
S'433333\xc3?'
p2550
tp2551
Rp2552
ag77
(g80
S'\x9a\x99\x99\x99\x99\x99\xc9?'
p2553
tp2554
Rp2555
ag77
(g80
S'\x00\x00\x00\x00\x00\x00\xd0?'
p2556
tp2557
Rp2558
ag77
(g80
S'433333\xd3?'
p2559
tp2560
Rp2561
ag77
(g80
S'gfffff\xd6?'
p2562
tp2563
Rp2564
ag77
(g80
S'\x9a\x99\x99\x99\x99\x99\xd9?'
p2565
tp2566
Rp2567
ag77
(g80
S'\xcd\xcc\xcc\xcc\xcc\xcc\xdc?'
p2568
tp2569
Rp2570
ag77
(g80
S'\x00\x00\x00\x00\x00\x00\xe0?'
p2571
tp2572
Rp2573
ag77
(g80
S'\x9a\x99\x99\x99\x99\x99\xe1?'
p2574
tp2575
Rp2576
ag77
(g80
S'433333\xe3?'
p2577
tp2578
Rp2579
ag77
(g80
S'\xcd\xcc\xcc\xcc\xcc\xcc\xe4?'
p2580
tp2581
Rp2582
ag77
(g80
S'gfffff\xe6?'
p2583
tp2584
Rp2585
ag77
(g80
S'\x00\x00\x00\x00\x00\x00\xe8?'
p2586
tp2587
Rp2588
ag77
(g80
S'\x9a\x99\x99\x99\x99\x99\xe9?'
p2589
tp2590
Rp2591
ag77
(g80
S'433333\xeb?'
p2592
tp2593
Rp2594
ag77
(g80
S'\xcd\xcc\xcc\xcc\xcc\xcc\xec?'
p2595
tp2596
Rp2597
ag77
(g80
S'gfffff\xee?'
p2598
tp2599
Rp2600
ag77
(g80
S'\x00\x00\x00\x00\x00\x00\xf0?'
p2601
tp2602
Rp2603
atp2604
ba(lp2605
g19
(g20
(dp2606
g22
g23
(g24
(I0
tp2607
g26
tp2608
Rp2609
(I1
(I15
tp2610
g33
I00
(lp2611
g37
ag38
ag39
ag40
ag41
ag42
ag43
ag44
ag45
ag46
ag47
ag48
ag49
ag50
ag51
atp2612
bsg53
Nstp2613
Rp2614
a(dp2615
g158
(dp2616
g160
g2516
sg161
(lp2617
(dp2618
g164
g165
(I0
I15
I1
tp2619
Rp2620
sg168
g2538
sasstp2621
bsbsI100
g4
(g5
g6
Ntp2622
Rp2623
(dp2624
g10
g11
sg12
g13
sg14
g4
(g15
g6
Ntp2625
Rp2626
((lp2627
g19
(g20
(dp2628
g22
g23
(g24
(I0
tp2629
g26
tp2630
Rp2631
(I1
(I15
tp2632
g33
I00
(lp2633
g37
ag38
ag39
ag40
ag41
ag42
ag43
ag44
ag45
ag46
ag47
ag48
ag49
ag50
ag51
atp2634
bsg53
Nstp2635
Rp2636
ag19
(g56
(dp2637
g22
g23
(g24
(I0
tp2638
g26
tp2639
Rp2640
(I1
(I21
tp2641
g64
I00
S'\x00\x00\x00\x00\x00\x00\x00\x00\x01\x00\x00\x00\x00\x00\x00\x00\x02\x00\x00\x00\x00\x00\x00\x00\x03\x00\x00\x00\x00\x00\x00\x00\x04\x00\x00\x00\x00\x00\x00\x00\x05\x00\x00\x00\x00\x00\x00\x00\x06\x00\x00\x00\x00\x00\x00\x00\x07\x00\x00\x00\x00\x00\x00\x00\x08\x00\x00\x00\x00\x00\x00\x00\t\x00\x00\x00\x00\x00\x00\x00\n\x00\x00\x00\x00\x00\x00\x00\x0b\x00\x00\x00\x00\x00\x00\x00\x0c\x00\x00\x00\x00\x00\x00\x00\r\x00\x00\x00\x00\x00\x00\x00\x0e\x00\x00\x00\x00\x00\x00\x00\x0f\x00\x00\x00\x00\x00\x00\x00\x10\x00\x00\x00\x00\x00\x00\x00\x11\x00\x00\x00\x00\x00\x00\x00\x12\x00\x00\x00\x00\x00\x00\x00\x13\x00\x00\x00\x00\x00\x00\x00\x14\x00\x00\x00\x00\x00\x00\x00'
p2642
tp2643
bsg53
Nstp2644
Rp2645
a(lp2646
g23
(g24
(I0
tp2647
g26
tp2648
Rp2649
(I1
(I15
I21
tp2650
g33
I01
(lp2651
I2052
aI2050
aI1918
aI1483
aI916
aI502
aI216
aI68
aI10
aI2
aI0
aI0
aI0
aI0
aI0
aI0
aI0
aI0
aI0
aI0
aI0
aI0
aI0
aI0
aI0
aI0
aI0
aI0
aI0
aI0
aI0
aI0
aI0
aI0
aI0
aI0
aI0
aI0
aI0
aI0
aI0
aI0
aI0
aI0
aI0
aI0
aI0
aI0
aI0
aI0
aI0
aI0
aI0
aI0
aI0
aI0
aI0
aI0
aI0
aI0
aI0
aI0
aI0
aI128
aI130
aI262
aI697
aI1264
aI1678
aI1964
aI2112
aI2170
aI2178
aI2180
aI2180
aI2180
aI2180
aI2180
aI2180
aI2180
aI2180
aI2180
aI2180
aI2180
aI2180
aI2180
aI2180
aI2180
aI2180
aI2180
aI2180
aI2180
aI2180
aI2180
aI2180
aI2180
aI2180
aI2180
aI2180
aI2180
aI2180
aI2180
aI2180
aI2180
aI2180
aI0
aI0
aI0
aI0
aI0
aI0
aI0
aI0
aI0
aI0
aI0
aI0
aI0
aI0
aI0
aI0
aI0
aI0
aI0
aI0
aI0
aF0.9412844036697248
aF0.9403669724770642
aF0.8798165137614679
aF0.6802752293577982
aF0.42018348623853213
aF0.23027522935779818
aF0.09908256880733946
aF0.031192660550458717
aF0.0045871559633027525
aF0.0009174311926605505
aF0.0
aF0.0
aF0.0
aF0.0
aF0.0
aF0.0
aF0.0
aF0.0
aF0.0
aF0.0
aF0.0
aF0.0
aF0.0
aF0.0
aF0.0
aF0.0
aF0.0
aF0.0
aF0.0
aF0.0
aF0.0
aF0.0
aF0.0
aF0.0
aF0.0
aF0.0
aF0.0
aF0.0
aF0.0
aF0.0
aF0.0
aF0.0
aI0
aI0
aI0
aI0
aI0
aI0
aI0
aI0
aI0
aI0
aI0
aI0
aI0
aI0
aI0
aI0
aI0
aI0
aI0
aI0
aI0
aI2180
aI2180
aI2180
aI2180
aI2180
aI2180
aI2180
aI2180
aI2180
aI2180
aI2180
aI2180
aI2180
aI2180
aI2180
aI2180
aI2180
aI2180
aI2180
aI2180
aI2180
aF0.0
aF0.0
aF0.0
aF0.0
aF0.0
aF0.0
aF0.0
aF0.0
aF0.0
aF0.0
aF0.0
aF0.0
aF0.0
aF0.0
aF0.0
aF0.0
aF0.0
aF0.0
aF0.0
aF0.0
aF0.0
aF0.05871559633027523
aF0.05963302752293578
aF0.12018348623853212
aF0.31972477064220184
aF0.5798165137614679
aF0.7697247706422018
aF0.9009174311926605
aF0.9688073394495413
aF0.9954128440366973
aF0.9990825688073395
aF1.0
aF1.0
aF1.0
aF1.0
aF1.0
aF1.0
aF1.0
aF1.0
aF1.0
aF1.0
aF1.0
aF1.0
aF1.0
aF1.0
aF1.0
aF1.0
aF1.0
aF1.0
aF1.0
aF1.0
aF1.0
aI1
aI1
aI1
aI1
aI1
aI1
aI1
aI1
aI1
aI1
aI1
aF0.9412844036697248
aF0.9403669724770642
aF0.8798165137614679
aF0.6802752293577982
aF0.42018348623853213
aF0.23027522935779818
aF0.09908256880733946
aF0.031192660550458717
aF0.0045871559633027525
aF0.0009174311926605505
aF0.0
aF0.0
aF0.0
aF0.0
aF0.0
aF0.0
aF0.0
aF0.0
aF0.0
aF0.0
aF0.0
ag77
(g80
S'\x00\x00\x00\x00\x00\x00\x00\x00'
p2652
tp2653
Rp2654
ag77
(g80
S'\x9a\x99\x99\x99\x99\x99\xa9?'
p2655
tp2656
Rp2657
ag77
(g80
S'\x9a\x99\x99\x99\x99\x99\xb9?'
p2658
tp2659
Rp2660
ag77
(g80
S'433333\xc3?'
p2661
tp2662
Rp2663
ag77
(g80
S'\x9a\x99\x99\x99\x99\x99\xc9?'
p2664
tp2665
Rp2666
ag77
(g80
S'\x00\x00\x00\x00\x00\x00\xd0?'
p2667
tp2668
Rp2669
ag77
(g80
S'433333\xd3?'
p2670
tp2671
Rp2672
ag77
(g80
S'gfffff\xd6?'
p2673
tp2674
Rp2675
ag77
(g80
S'\x9a\x99\x99\x99\x99\x99\xd9?'
p2676
tp2677
Rp2678
ag77
(g80
S'\xcd\xcc\xcc\xcc\xcc\xcc\xdc?'
p2679
tp2680
Rp2681
ag77
(g80
S'\x00\x00\x00\x00\x00\x00\xe0?'
p2682
tp2683
Rp2684
ag77
(g80
S'\x9a\x99\x99\x99\x99\x99\xe1?'
p2685
tp2686
Rp2687
ag77
(g80
S'433333\xe3?'
p2688
tp2689
Rp2690
ag77
(g80
S'\xcd\xcc\xcc\xcc\xcc\xcc\xe4?'
p2691
tp2692
Rp2693
ag77
(g80
S'gfffff\xe6?'
p2694
tp2695
Rp2696
ag77
(g80
S'\x00\x00\x00\x00\x00\x00\xe8?'
p2697
tp2698
Rp2699
ag77
(g80
S'\x9a\x99\x99\x99\x99\x99\xe9?'
p2700
tp2701
Rp2702
ag77
(g80
S'433333\xeb?'
p2703
tp2704
Rp2705
ag77
(g80
S'\xcd\xcc\xcc\xcc\xcc\xcc\xec?'
p2706
tp2707
Rp2708
ag77
(g80
S'gfffff\xee?'
p2709
tp2710
Rp2711
ag77
(g80
S'\x00\x00\x00\x00\x00\x00\xf0?'
p2712
tp2713
Rp2714
atp2715
ba(lp2716
g19
(g20
(dp2717
g22
g23
(g24
(I0
tp2718
g26
tp2719
Rp2720
(I1
(I15
tp2721
g33
I00
(lp2722
g37
ag38
ag39
ag40
ag41
ag42
ag43
ag44
ag45
ag46
ag47
ag48
ag49
ag50
ag51
atp2723
bsg53
Nstp2724
Rp2725
a(dp2726
g158
(dp2727
g160
g2627
sg161
(lp2728
(dp2729
g164
g165
(I0
I15
I1
tp2730
Rp2731
sg168
g2649
sasstp2732
bsbssa.